Certificate:
    Data:
        Version: 3 (0x2)
        Serial Number:
            c3:5c:80:e1:e0:38:27:bc:2a:fa:53:2c:20:01:48:bd
        Signature Algorithm: sha256WithRSAEncryption
        Issuer: CN=ChangeMe
        Validity
            Not Before: Mar 29 13:51:24 2023 GMT
            Not After : Oct 22 13:51:24 2052 GMT
        Subject: CN=admin3
        Subject Public Key Info:
            Public Key Algorithm: rsaEncryption
                RSA Public-Key: (2048 bit)
                Modulus:
                    00:cb:70:3a:8b:11:78:11:5d:f8:db:43:e5:07:6f:
                    08:17:df:16:bc:eb:1b:2a:94:c8:74:46:0c:c0:e3:
                    d8:26:38:44:05:90:d7:0d:71:33:a6:5f:e6:33:96:
                    2f:5f:a0:0b:aa:f8:6c:1a:00:59:e3:63:b4:f5:26:
                    f0:74:3d:8b:fa:fb:52:f9:5d:ff:64:8a:c2:2a:83:
                    95:f2:7e:a8:dc:8b:bc:0d:cf:c9:3c:87:a4:9f:ae:
                    36:5c:f9:af:d1:87:28:2b:a2:23:8a:5a:01:fb:63:
                    df:18:50:8b:f9:d6:48:79:21:a2:c9:37:a8:83:6b:
                    f8:74:6f:85:25:fd:60:3f:36:95:e3:41:00:82:ec:
                    71:c6:84:7c:79:72:3a:3f:dd:dc:7a:d0:23:54:59:
                    e6:36:d6:06:2d:2e:6d:de:c9:ac:5a:cf:97:e5:69:
                    1e:42:32:2a:37:81:b1:35:79:da:ce:d0:fa:88:d2:
                    c4:eb:f0:c6:a7:15:0b:d8:0b:37:58:07:19:c5:cd:
                    6c:86:c9:53:d8:99:0e:f3:aa:3f:c1:d3:f9:ed:af:
                    cb:01:1d:db:27:80:9b:f0:93:38:b5:09:4e:6e:85:
                    1d:ec:d3:9f:aa:fb:07:bc:bc:1a:d8:b2:a7:a1:03:
                    7b:af:47:5c:8e:f6:b0:04:98:98:ef:12:6b:f9:9e:
                    b8:27
                Exponent: 65537 (0x10001)
        X509v3 extensions:
            X509v3 Basic Constraints: 
                CA:FALSE
            X509v3 Subject Key Identifier: 
                A5:C1:76:BD:67:88:FA:40:36:93:66:14:60:C7:83:46:7A:21:42:D6
            X509v3 Authority Key Identifier: 
                keyid:C5:A9:69:17:7A:44:5E:50:EA:3E:16:C7:52:41:B5:E0:70:22:BF:B7
                DirName:/CN=ChangeMe
                serial:59:F7:CC:55:52:58:4E:A0:E0:33:4C:1C:63:C6:64:01:9D:55:77:FC

            X509v3 Extended Key Usage: 
                TLS Web Client Authentication
            X509v3 Key Usage: 
                Digital Signature
    Signature Algorithm: sha256WithRSAEncryption
         83:03:a5:72:59:ed:02:c9:ed:6e:36:7a:70:30:fe:47:12:13:
         88:e3:ec:a2:56:ff:ea:ad:6b:b2:48:31:82:ab:7c:52:17:4e:
         c6:8a:d9:33:2e:05:95:73:3f:3d:7a:34:71:5e:c6:1d:c1:df:
         94:25:ca:43:80:b0:23:2f:da:ce:aa:2d:d9:76:52:dd:b9:30:
         11:a1:ec:09:67:73:9d:e7:91:50:08:af:83:a6:7d:30:49:a9:
         b1:10:1e:03:a1:57:29:ee:56:11:a5:85:b3:63:87:fe:79:c0:
         e9:c5:ea:cc:b4:ea:38:65:a8:0a:6a:c6:af:db:e2:12:72:e3:
         93:1e:bb:fb:9e:0e:51:e1:a4:9e:27:d6:66:1c:10:5a:ba:33:
         78:e0:c0:1b:c0:5f:8a:df:53:12:ae:84:c7:43:8a:02:eb:7b:
         98:96:70:69:18:32:c8:fc:e6:de:09:bd:1c:c6:94:f7:a4:bf:
         75:e2:d8:a8:43:b6:1d:ef:23:bf:3a:90:e1:53:6a:25:5f:7c:
         87:b9:14:45:f4:f5:13:da:bc:ae:2e:02:e9:ff:6d:62:07:56:
         80:b2:ab:14:7b:6a:1d:39:3f:97:67:dc:c0:0a:1a:1c:1b:62:
         6e:5b:4f:88:4a:23:17:17:c7:89:99:35:57:c2:4b:aa:ce:9c:
         df:0a:95:16
-----BEGIN CERTIFICATE-----
MIIDUTCCAjmgAwIBAgIRAMNcgOHgOCe8KvpTLCABSL0wDQYJKoZIhvcNAQELBQAw
EzERMA8GA1UEAwwIQ2hhbmdlTWUwIBcNMjMwMzI5MTM1MTI0WhgPMjA1MjEwMjIx
MzUxMjRaMBExDzANBgNVBAMMBmFkbWluMzCCASIwDQYJKoZIhvcNAQEBBQADggEP
ADCCAQoCggEBAMtwOosReBFd+NtD5QdvCBffFrzrGyqUyHRGDMDj2CY4RAWQ1w1x
M6Zf5jOWL1+gC6r4bBoAWeNjtPUm8HQ9i/r7Uvld/2SKwiqDlfJ+qNyLvA3PyTyH
pJ+uNlz5r9GHKCuiI4paAftj3xhQi/nWSHkhosk3qINr+HRvhSX9YD82leNBAILs
ccaEfHlyOj/d3HrQI1RZ5jbWBi0ubd7JrFrPl+VpHkIyKjeBsTV52s7Q+ojSxOvw
xqcVC9gLN1gHGcXNbIbJU9iZDvOqP8HT+e2vywEd2yeAm/CTOLUJTm6FHezTn6r7
B7y8Gtiyp6EDe69HXI72sASYmO8Sa/meuCcCAwEAAaOBnzCBnDAJBgNVHRMEAjAA
MB0GA1UdDgQWBBSlwXa9Z4j6QDaTZhRgx4NGeiFC1jBOBgNVHSMERzBFgBTFqWkX
ekReUOo+FsdSQbXgcCK/t6EXpBUwEzERMA8GA1UEAwwIQ2hhbmdlTWWCFFn3zFVS
WE6g4DNMHGPGZAGdVXf8MBMGA1UdJQQMMAoGCCsGAQUFBwMCMAsGA1UdDwQEAwIH
gDANBgkqhkiG9w0BAQsFAAOCAQEAgwOlclntAsntbjZ6cDD+RxITiOPsolb/6q1r
skgxgqt8UhdOxorZMy4FlXM/PXo0cV7GHcHflCXKQ4CwIy/azqot2XZS3bkwEaHs
CWdzneeRUAivg6Z9MEmpsRAeA6FXKe5WEaWFs2OH/nnA6cXqzLTqOGWoCmrGr9vi
EnLjkx67+54OUeGknifWZhwQWrozeODAG8Bfit9TEq6Ex0OKAut7mJZwaRgyyPzm
3gm9HMaU96S/deLYqEO2He8jvzqQ4VNqJV98h7kURfT1E9q8ri4C6f9tYgdWgLKr
FHtqHTk/l2fcwAoaHBtibltPiEojFxfHiZk1V8JLqs6c3wqVFg==
-----END CERTIFICATE-----
