Certificate:
    Data:
        Version: 3 (0x2)
        Serial Number:
            24:78:97:e0:98:88:af:a4:fd:c9:72:19:54:b1:ce:09
        Signature Algorithm: sha256WithRSAEncryption
        Issuer: CN=ChangeMe
        Validity
            Not Before: Mar 29 13:51:22 2023 GMT
            Not After : Oct 22 13:51:22 2052 GMT
        Subject: CN=admin2
        Subject Public Key Info:
            Public Key Algorithm: rsaEncryption
                RSA Public-Key: (2048 bit)
                Modulus:
                    00:d7:63:c2:f3:42:8e:ea:fc:3d:3c:5e:38:62:fd:
                    79:9a:46:88:85:0e:a0:9d:ef:f2:59:c4:20:a4:08:
                    e7:fc:9f:83:bb:90:5c:1b:49:49:af:86:29:de:7e:
                    be:e0:d2:34:a8:6b:35:24:08:c3:95:2a:cc:33:94:
                    36:9f:1e:95:c1:e1:4b:52:42:a5:af:65:2c:fa:70:
                    7c:9d:00:7b:ab:ea:26:b6:3c:bf:47:38:4b:0f:a0:
                    8f:75:51:2f:f6:fa:a0:cb:b2:3c:f4:76:23:34:5b:
                    64:23:10:f2:83:28:f3:a2:63:88:00:cb:ea:b9:47:
                    83:24:21:05:8a:18:cc:fc:82:15:ca:e2:ee:df:8d:
                    36:15:9a:bd:ad:7a:a2:72:91:7b:4f:90:38:f5:82:
                    01:4c:26:c3:69:b5:9b:0d:75:61:93:59:63:6b:04:
                    06:cf:fb:e8:c8:71:21:9d:8c:91:8b:f6:b1:08:4f:
                    00:05:10:f9:47:02:dc:99:2f:37:02:71:e9:3d:0b:
                    01:96:08:6c:6f:51:74:ba:26:a1:77:b8:07:36:26:
                    ea:53:42:f6:8c:a1:5e:e9:a3:0e:a9:f3:59:47:29:
                    16:ea:47:b3:72:f9:2f:7d:7b:ec:b5:e4:ab:8f:7b:
                    6a:a8:4e:9f:80:bf:5c:15:31:1d:f8:10:88:60:bd:
                    df:57
                Exponent: 65537 (0x10001)
        X509v3 extensions:
            X509v3 Basic Constraints: 
                CA:FALSE
            X509v3 Subject Key Identifier: 
                12:33:8C:FB:FE:59:F6:CA:92:4E:BF:D4:E5:34:BB:43:90:0F:5F:5F
            X509v3 Authority Key Identifier: 
                keyid:C5:A9:69:17:7A:44:5E:50:EA:3E:16:C7:52:41:B5:E0:70:22:BF:B7
                DirName:/CN=ChangeMe
                serial:59:F7:CC:55:52:58:4E:A0:E0:33:4C:1C:63:C6:64:01:9D:55:77:FC

            X509v3 Extended Key Usage: 
                TLS Web Client Authentication
            X509v3 Key Usage: 
                Digital Signature
    Signature Algorithm: sha256WithRSAEncryption
         08:24:1d:a4:1a:84:19:4a:82:c0:1d:6a:af:ef:f7:09:6a:dc:
         a5:fc:0c:23:57:88:2e:0a:d5:6a:61:01:77:f1:75:83:51:cd:
         87:56:3f:06:34:d3:56:16:06:4f:f6:c3:89:26:17:6e:6e:4c:
         da:73:6b:2a:72:1f:1d:51:82:d8:34:16:d6:86:61:f7:02:f0:
         b1:cb:ab:08:21:cb:fa:56:0f:62:ab:dc:69:a0:14:cd:43:ed:
         66:54:15:93:6e:05:85:ca:94:4c:12:22:30:c6:83:04:46:32:
         a9:63:1e:f3:17:ef:2d:41:ee:96:79:05:c8:27:50:2d:54:cd:
         07:76:b8:65:1c:f5:29:f7:52:85:92:8f:da:2e:86:28:23:ae:
         50:29:5d:86:af:26:5a:ff:71:10:c7:5d:a1:2a:71:08:2a:dc:
         67:74:c9:a0:d6:35:82:64:e7:d3:5e:0f:85:43:2d:ae:ba:71:
         3e:58:3f:38:67:91:29:de:c5:ab:ea:f9:08:6c:a3:48:6a:4a:
         14:0e:ef:cd:b1:75:61:fe:09:64:df:34:78:8c:07:10:67:6d:
         78:e7:3e:85:a9:47:fd:19:c3:52:e9:f3:c9:73:14:6f:eb:08:
         a1:30:b4:9e:77:ed:40:f2:42:27:45:b9:22:7a:3b:f6:d3:a6:
         b2:f1:44:cb
-----BEGIN CERTIFICATE-----
MIIDUDCCAjigAwIBAgIQJHiX4JiIr6T9yXIZVLHOCTANBgkqhkiG9w0BAQsFADAT
MREwDwYDVQQDDAhDaGFuZ2VNZTAgFw0yMzAzMjkxMzUxMjJaGA8yMDUyMTAyMjEz
NTEyMlowETEPMA0GA1UEAwwGYWRtaW4yMIIBIjANBgkqhkiG9w0BAQEFAAOCAQ8A
MIIBCgKCAQEA12PC80KO6vw9PF44Yv15mkaIhQ6gne/yWcQgpAjn/J+Du5BcG0lJ
r4Yp3n6+4NI0qGs1JAjDlSrMM5Q2nx6VweFLUkKlr2Us+nB8nQB7q+omtjy/RzhL
D6CPdVEv9vqgy7I89HYjNFtkIxDygyjzomOIAMvquUeDJCEFihjM/IIVyuLu3402
FZq9rXqicpF7T5A49YIBTCbDabWbDXVhk1ljawQGz/voyHEhnYyRi/axCE8ABRD5
RwLcmS83AnHpPQsBlghsb1F0uiahd7gHNibqU0L2jKFe6aMOqfNZRykW6kezcvkv
fXvsteSrj3tqqE6fgL9cFTEd+BCIYL3fVwIDAQABo4GfMIGcMAkGA1UdEwQCMAAw
HQYDVR0OBBYEFBIzjPv+WfbKkk6/1OU0u0OQD19fME4GA1UdIwRHMEWAFMWpaRd6
RF5Q6j4Wx1JBteBwIr+3oRekFTATMREwDwYDVQQDDAhDaGFuZ2VNZYIUWffMVVJY
TqDgM0wcY8ZkAZ1Vd/wwEwYDVR0lBAwwCgYIKwYBBQUHAwIwCwYDVR0PBAQDAgeA
MA0GCSqGSIb3DQEBCwUAA4IBAQAIJB2kGoQZSoLAHWqv7/cJatyl/AwjV4guCtVq
YQF38XWDUc2HVj8GNNNWFgZP9sOJJhdubkzac2sqch8dUYLYNBbWhmH3AvCxy6sI
Icv6Vg9iq9xpoBTNQ+1mVBWTbgWFypRMEiIwxoMERjKpYx7zF+8tQe6WeQXIJ1At
VM0HdrhlHPUp91KFko/aLoYoI65QKV2GryZa/3EQx12hKnEIKtxndMmg1jWCZOfT
Xg+FQy2uunE+WD84Z5Ep3sWr6vkIbKNIakoUDu/NsXVh/glk3zR4jAcQZ2145z6F
qUf9GcNS6fPJcxRv6wihMLSed+1A8kInRbkiejv206ay8UTL
-----END CERTIFICATE-----
