Certificate:
    Data:
        Version: 3 (0x2)
        Serial Number:
            66:f7:08:41:a2:5b:a4:c5:c2:7b:73:bc:65:ca:5b:4d
        Signature Algorithm: sha256WithRSAEncryption
        Issuer: CN=ChangeMe
        Validity
            Not Before: Mar 29 13:51:19 2023 GMT
            Not After : Oct 22 13:51:19 2052 GMT
        Subject: CN=exch_adm
        Subject Public Key Info:
            Public Key Algorithm: rsaEncryption
                RSA Public-Key: (2048 bit)
                Modulus:
                    00:b2:bf:86:f1:cb:a7:e7:50:b3:59:e4:da:37:4e:
                    f3:fb:db:42:e5:31:75:a4:86:8e:7b:bf:01:52:84:
                    e7:f8:ae:65:22:3e:d4:ee:50:da:13:47:5c:a8:fd:
                    fc:61:3e:6b:ef:89:4e:d4:47:27:3b:c8:01:66:2f:
                    d2:08:04:f5:e4:22:c9:de:79:45:a2:c3:f2:22:ae:
                    33:e8:80:e9:27:35:e8:62:51:5f:1b:0c:44:7b:85:
                    82:8e:a9:ee:ce:fe:7e:99:79:61:14:f9:62:02:70:
                    f6:5d:dc:64:27:6d:26:91:d7:f9:8a:c3:5f:e4:f5:
                    b2:c3:21:b1:5e:5e:9e:fc:96:2c:84:25:fe:77:77:
                    21:01:18:05:d8:46:60:f6:9b:49:fa:de:73:36:be:
                    41:34:4b:9b:e1:4a:ec:93:43:c9:8e:5d:3c:4b:15:
                    f4:5f:b1:e2:ea:bf:27:c5:09:af:45:45:48:f0:0c:
                    3a:33:0e:cf:2b:f4:a8:25:64:19:51:39:d9:92:c1:
                    1b:9a:e1:63:10:8a:d8:89:74:6a:b5:9d:fd:f9:34:
                    db:1c:f9:44:77:8a:89:f1:4e:9f:6b:6a:e6:87:f0:
                    af:41:91:3c:ff:5b:9e:4e:b0:f6:8b:ec:0b:e4:1c:
                    72:07:60:86:e6:f2:99:34:06:34:4e:34:a2:7d:19:
                    1e:95
                Exponent: 65537 (0x10001)
        X509v3 extensions:
            X509v3 Basic Constraints: 
                CA:FALSE
            X509v3 Subject Key Identifier: 
                7A:83:D5:FD:A8:33:9D:B9:26:3F:39:4C:D8:E6:60:0D:E1:06:D2:18
            X509v3 Authority Key Identifier: 
                keyid:C5:A9:69:17:7A:44:5E:50:EA:3E:16:C7:52:41:B5:E0:70:22:BF:B7
                DirName:/CN=ChangeMe
                serial:59:F7:CC:55:52:58:4E:A0:E0:33:4C:1C:63:C6:64:01:9D:55:77:FC

            X509v3 Extended Key Usage: 
                TLS Web Client Authentication
            X509v3 Key Usage: 
                Digital Signature
    Signature Algorithm: sha256WithRSAEncryption
         49:a8:33:ed:5f:0d:b5:56:21:73:07:db:75:65:b1:ab:71:04:
         7b:44:05:4c:b4:0e:ff:d9:34:31:7c:a8:ad:12:7e:ba:9f:f8:
         ab:56:8b:13:b4:10:00:bf:6a:62:e0:a9:53:07:73:30:61:6b:
         4d:07:8a:d8:1a:df:96:df:a4:ad:87:fb:3d:b0:7e:ca:05:4e:
         85:95:35:74:88:b2:89:97:66:bf:2e:74:ac:d9:47:ef:96:e7:
         dc:cc:9f:45:1d:c3:20:b3:6c:66:f8:eb:5b:02:e8:6b:8d:d7:
         8a:f8:4c:88:35:7e:54:f7:da:e6:7a:eb:3b:5a:d7:5f:10:0f:
         92:a5:0d:cc:75:8d:59:4f:95:fa:40:6b:76:df:9f:f3:2f:c2:
         fc:48:f3:ea:39:b7:a2:22:2c:d2:1c:33:d6:fb:4d:bc:58:80:
         69:37:61:38:ff:76:d7:e0:89:79:1b:7d:15:6b:9b:da:25:91:
         73:63:35:2e:ec:a4:b2:82:54:f6:d4:c2:31:e0:9e:d3:12:b0:
         bd:a9:85:a7:24:65:83:5d:64:66:6d:1b:e3:64:3f:8e:95:8f:
         55:26:e6:9b:a9:ca:9c:72:2f:46:1b:8b:66:61:1f:d5:06:38:
         e3:18:4b:20:ae:72:96:17:74:ce:0c:1f:bb:d7:4c:ec:18:91:
         7c:41:a4:c5
-----BEGIN CERTIFICATE-----
MIIDUjCCAjqgAwIBAgIQZvcIQaJbpMXCe3O8ZcpbTTANBgkqhkiG9w0BAQsFADAT
MREwDwYDVQQDDAhDaGFuZ2VNZTAgFw0yMzAzMjkxMzUxMTlaGA8yMDUyMTAyMjEz
NTExOVowEzERMA8GA1UEAwwIZXhjaF9hZG0wggEiMA0GCSqGSIb3DQEBAQUAA4IB
DwAwggEKAoIBAQCyv4bxy6fnULNZ5No3TvP720LlMXWkho57vwFShOf4rmUiPtTu
UNoTR1yo/fxhPmvviU7URyc7yAFmL9IIBPXkIsneeUWiw/IirjPogOknNehiUV8b
DER7hYKOqe7O/n6ZeWEU+WICcPZd3GQnbSaR1/mKw1/k9bLDIbFeXp78liyEJf53
dyEBGAXYRmD2m0n63nM2vkE0S5vhSuyTQ8mOXTxLFfRfseLqvyfFCa9FRUjwDDoz
Ds8r9KglZBlROdmSwRua4WMQitiJdGq1nf35NNsc+UR3ionxTp9rauaH8K9BkTz/
W55OsPaL7AvkHHIHYIbm8pk0BjRONKJ9GR6VAgMBAAGjgZ8wgZwwCQYDVR0TBAIw
ADAdBgNVHQ4EFgQUeoPV/agznbkmPzlM2OZgDeEG0hgwTgYDVR0jBEcwRYAUxalp
F3pEXlDqPhbHUkG14HAiv7ehF6QVMBMxETAPBgNVBAMMCENoYW5nZU1lghRZ98xV
UlhOoOAzTBxjxmQBnVV3/DATBgNVHSUEDDAKBggrBgEFBQcDAjALBgNVHQ8EBAMC
B4AwDQYJKoZIhvcNAQELBQADggEBAEmoM+1fDbVWIXMH23VlsatxBHtEBUy0Dv/Z
NDF8qK0Sfrqf+KtWixO0EAC/amLgqVMHczBha00Hitga35bfpK2H+z2wfsoFToWV
NXSIsomXZr8udKzZR++W59zMn0UdwyCzbGb461sC6GuN14r4TIg1flT32uZ66zta
118QD5KlDcx1jVlPlfpAa3bfn/MvwvxI8+o5t6IiLNIcM9b7TbxYgGk3YTj/dtfg
iXkbfRVrm9olkXNjNS7spLKCVPbUwjHgntMSsL2phackZYNdZGZtG+NkP46Vj1Um
5pupypxyL0Ybi2ZhH9UGOOMYSyCucpYXdM4MH7vXTOwYkXxBpMU=
-----END CERTIFICATE-----
