Certificate:
    Data:
        Version: 3 (0x2)
        Serial Number:
            49:96:13:1d:fc:13:62:70:c4:05:ff:8b:68:c9:a8:c6
        Signature Algorithm: sha256WithRSAEncryption
        Issuer: CN=ChangeMe
        Validity
            Not Before: Mar 29 13:51:21 2023 GMT
            Not After : Oct 22 13:51:21 2052 GMT
        Subject: CN=Oksana
        Subject Public Key Info:
            Public Key Algorithm: rsaEncryption
                RSA Public-Key: (2048 bit)
                Modulus:
                    00:a0:01:9f:ec:2c:54:b7:6f:9a:a6:56:c1:14:4a:
                    a3:21:ef:ac:e0:eb:20:f9:b6:e7:4a:51:c5:ae:7d:
                    ad:47:7e:56:9d:6f:f1:30:9c:74:80:d6:e9:30:82:
                    b6:45:c8:36:3a:e1:06:ed:df:a8:4c:c8:1b:18:1c:
                    20:eb:e9:0c:c4:3f:9c:c4:1c:0e:45:3b:94:6f:15:
                    32:17:05:b0:df:6e:f3:9b:01:3e:f5:b5:9d:8c:54:
                    a5:d0:38:53:bd:e8:85:91:34:86:ea:6f:96:61:b2:
                    58:1e:13:f8:ca:d2:83:29:9b:b1:13:da:0f:df:ec:
                    6f:98:db:0e:80:9f:a9:e6:87:8d:aa:27:92:b1:78:
                    13:53:09:d6:06:30:33:c7:98:2d:ae:88:ee:36:a8:
                    e0:6c:5e:11:8a:e6:68:9d:6d:e7:62:31:67:f4:73:
                    2b:78:cf:c9:64:35:d5:c4:c8:8e:c4:85:c6:f0:d4:
                    80:dd:9f:cd:d7:e2:95:4e:27:31:97:5c:85:c3:7d:
                    44:f9:c3:2f:4f:6f:77:29:78:1d:d3:c1:ea:9e:0c:
                    a6:36:34:61:58:4c:60:5a:24:13:1e:85:b5:1f:70:
                    ad:0b:fd:52:71:d4:b2:9b:01:49:ea:90:a2:ac:dd:
                    63:96:14:38:fc:70:10:03:9d:b6:7e:67:a7:ab:3d:
                    16:e9
                Exponent: 65537 (0x10001)
        X509v3 extensions:
            X509v3 Basic Constraints: 
                CA:FALSE
            X509v3 Subject Key Identifier: 
                B1:75:F9:86:F0:E6:CE:01:10:81:03:8F:CF:77:93:85:39:6D:6F:23
            X509v3 Authority Key Identifier: 
                keyid:C5:A9:69:17:7A:44:5E:50:EA:3E:16:C7:52:41:B5:E0:70:22:BF:B7
                DirName:/CN=ChangeMe
                serial:59:F7:CC:55:52:58:4E:A0:E0:33:4C:1C:63:C6:64:01:9D:55:77:FC

            X509v3 Extended Key Usage: 
                TLS Web Client Authentication
            X509v3 Key Usage: 
                Digital Signature
    Signature Algorithm: sha256WithRSAEncryption
         47:f4:40:10:2e:5c:e1:85:93:55:7d:26:5f:36:af:03:a3:e1:
         05:e1:7b:50:59:5a:5a:5b:28:f7:86:e3:c1:b9:e8:79:b3:d2:
         d3:e5:40:d8:43:c5:57:b1:85:23:d9:76:8c:22:65:ca:7f:dc:
         3c:c1:91:f8:19:3b:ca:e9:a6:58:3b:38:dd:2c:e9:24:3c:20:
         14:ed:0c:3e:39:18:88:43:44:46:46:55:a2:83:80:c6:8e:55:
         b4:5c:ad:03:08:4d:5c:77:02:52:09:89:a4:e9:a7:e4:5f:79:
         2f:25:b3:66:41:37:9d:4f:7a:a2:50:7a:50:5b:cb:a1:46:52:
         35:98:91:85:43:41:d2:77:37:f7:a8:90:8a:2a:e2:82:85:4e:
         30:f8:3a:77:84:98:d4:9a:6e:ac:dc:ae:27:b4:72:d0:a5:31:
         f2:e0:1c:eb:e0:07:45:52:ef:4e:fe:e1:dc:89:fe:6f:de:d9:
         48:53:f3:96:f5:a4:2a:3f:40:08:00:b7:5a:e3:e2:fb:fd:28:
         c5:a4:51:fc:7e:60:7d:46:8b:5b:4a:92:29:26:ac:0e:20:b2:
         a9:3c:06:7d:e8:14:e8:54:77:69:a6:5a:8a:fb:f9:1f:fe:9d:
         d1:a4:81:f0:b5:fe:e5:55:be:a4:cf:5b:a7:62:3c:7b:4a:59:
         80:9d:40:fb
-----BEGIN CERTIFICATE-----
MIIDUDCCAjigAwIBAgIQSZYTHfwTYnDEBf+LaMmoxjANBgkqhkiG9w0BAQsFADAT
MREwDwYDVQQDDAhDaGFuZ2VNZTAgFw0yMzAzMjkxMzUxMjFaGA8yMDUyMTAyMjEz
NTEyMVowETEPMA0GA1UEAwwGT2tzYW5hMIIBIjANBgkqhkiG9w0BAQEFAAOCAQ8A
MIIBCgKCAQEAoAGf7CxUt2+aplbBFEqjIe+s4Osg+bbnSlHFrn2tR35WnW/xMJx0
gNbpMIK2Rcg2OuEG7d+oTMgbGBwg6+kMxD+cxBwORTuUbxUyFwWw327zmwE+9bWd
jFSl0DhTveiFkTSG6m+WYbJYHhP4ytKDKZuxE9oP3+xvmNsOgJ+p5oeNqieSsXgT
UwnWBjAzx5gtrojuNqjgbF4RiuZonW3nYjFn9HMreM/JZDXVxMiOxIXG8NSA3Z/N
1+KVTicxl1yFw31E+cMvT293KXgd08HqngymNjRhWExgWiQTHoW1H3CtC/1ScdSy
mwFJ6pCirN1jlhQ4/HAQA522fmenqz0W6QIDAQABo4GfMIGcMAkGA1UdEwQCMAAw
HQYDVR0OBBYEFLF1+Ybw5s4BEIEDj893k4U5bW8jME4GA1UdIwRHMEWAFMWpaRd6
RF5Q6j4Wx1JBteBwIr+3oRekFTATMREwDwYDVQQDDAhDaGFuZ2VNZYIUWffMVVJY
TqDgM0wcY8ZkAZ1Vd/wwEwYDVR0lBAwwCgYIKwYBBQUHAwIwCwYDVR0PBAQDAgeA
MA0GCSqGSIb3DQEBCwUAA4IBAQBH9EAQLlzhhZNVfSZfNq8Do+EF4XtQWVpaWyj3
huPBueh5s9LT5UDYQ8VXsYUj2XaMImXKf9w8wZH4GTvK6aZYOzjdLOkkPCAU7Qw+
ORiIQ0RGRlWig4DGjlW0XK0DCE1cdwJSCYmk6afkX3kvJbNmQTedT3qiUHpQW8uh
RlI1mJGFQ0HSdzf3qJCKKuKChU4w+Dp3hJjUmm6s3K4ntHLQpTHy4Bzr4AdFUu9O
/uHcif5v3tlIU/OW9aQqP0AIALda4+L7/SjFpFH8fmB9RotbSpIpJqwOILKpPAZ9
6BToVHdpplqK+/kf/p3RpIHwtf7lVb6kz1unYjx7SlmAnUD7
-----END CERTIFICATE-----
