Certificate:
    Data:
        Version: 3 (0x2)
        Serial Number:
            b7:c6:d0:a3:a0:8f:71:52:38:ff:2b:12:27:87:3a:a7
        Signature Algorithm: sha256WithRSAEncryption
        Issuer: CN=ChangeMe
        Validity
            Not Before: Mar 29 12:55:28 2023 GMT
            Not After : Oct 22 12:55:28 2052 GMT
        Subject: CN=Oksana
        Subject Public Key Info:
            Public Key Algorithm: rsaEncryption
                RSA Public-Key: (2048 bit)
                Modulus:
                    00:c4:35:33:bd:f4:16:49:39:11:16:a8:24:5f:04:
                    84:8c:de:ad:06:b7:63:01:e0:06:d8:d3:de:b8:e4:
                    88:3f:e3:6e:45:22:9b:fc:48:42:15:47:47:8b:b3:
                    44:f9:d4:10:44:8d:92:c4:09:f5:02:47:ea:5b:40:
                    56:d1:83:6b:b5:bb:36:a1:fa:88:a7:4a:9b:d2:b5:
                    11:3e:da:9f:3c:44:a3:44:5a:ab:45:d4:0a:63:69:
                    ae:52:85:76:9d:45:d3:7b:9a:01:54:a8:66:04:25:
                    eb:2d:dd:d7:ad:62:25:e4:06:7d:1d:0f:33:ad:82:
                    b4:43:60:2c:ce:bf:6d:9d:c9:d4:f1:37:6b:a2:4c:
                    f0:d9:07:44:42:3a:96:a1:22:9f:bd:ac:a7:01:6a:
                    fc:b2:f1:f8:85:c0:5d:f0:2d:64:ae:1d:b4:75:f5:
                    fe:d3:c1:0d:1e:45:a0:14:a9:4a:35:dd:87:1a:5b:
                    9d:d2:da:1c:22:ff:aa:ac:8e:22:e8:c4:58:63:57:
                    c9:20:9e:2b:89:1c:53:fe:3a:59:30:8d:d5:96:e8:
                    5d:39:4c:9c:eb:b4:89:1a:d7:cd:65:c2:86:5c:fb:
                    ca:1b:eb:fc:3d:7c:a6:e7:90:68:ea:db:54:58:26:
                    f8:73:a1:b6:e8:c0:2e:a1:d9:4c:68:7d:c5:d0:f2:
                    42:19
                Exponent: 65537 (0x10001)
        X509v3 extensions:
            X509v3 Basic Constraints: 
                CA:FALSE
            X509v3 Subject Key Identifier: 
                37:07:8C:C1:F0:CD:AA:F2:F5:D2:A5:AD:E4:3B:CE:1E:65:07:4C:7F
            X509v3 Authority Key Identifier: 
                keyid:5B:5F:95:8D:60:8C:DF:4C:73:FD:7C:9A:F0:60:C2:2D:E9:81:84:32
                DirName:/CN=ChangeMe
                serial:0E:D1:C8:01:79:CF:8E:4D:55:0D:B2:3F:8B:B5:00:8C:06:69:14:7D

            X509v3 Extended Key Usage: 
                TLS Web Client Authentication
            X509v3 Key Usage: 
                Digital Signature
    Signature Algorithm: sha256WithRSAEncryption
         92:fa:85:2b:0a:38:11:64:59:72:48:b9:57:f7:51:98:55:19:
         31:b8:cd:04:27:76:83:1e:92:ae:8c:d9:15:e6:ba:0b:4c:61:
         b7:08:34:4b:3e:a7:78:a6:1f:ae:3b:47:32:50:9d:bc:1a:64:
         5d:a9:c8:c7:7d:f5:69:2a:3b:77:5b:5d:ac:d7:e1:a6:b6:21:
         9a:d5:b4:07:84:22:31:de:93:d5:f1:b7:0a:1f:7e:a9:06:27:
         a9:c0:e6:96:b1:fb:a5:89:86:8f:f8:c4:cb:a1:7d:5b:f9:62:
         35:64:d2:5a:17:90:6f:97:9d:07:5f:8b:3b:3a:8e:3a:cf:37:
         89:db:1c:a7:70:a0:bf:89:20:68:d4:2b:e1:e3:07:29:9b:e3:
         cc:03:59:2f:b1:8a:2b:3d:69:b5:20:47:4c:d1:8c:a6:de:c3:
         eb:2c:13:df:81:8a:d3:ba:44:09:01:c9:c3:3a:20:01:e2:86:
         b2:c5:42:a2:24:9c:0d:7f:ae:f3:b0:6a:4d:8b:e5:1d:04:4d:
         e6:5f:d5:2b:ae:43:28:c1:f6:f0:d4:5d:14:b7:dc:20:5e:33:
         69:95:0f:79:9f:eb:55:8d:d8:e8:50:5e:f8:0f:3e:a7:00:e1:
         93:39:11:cd:2e:fa:19:f9:eb:1d:0e:42:6a:cb:bf:a1:7c:6a:
         d1:26:4e:0b
-----BEGIN CERTIFICATE-----
MIIDUTCCAjmgAwIBAgIRALfG0KOgj3FSOP8rEieHOqcwDQYJKoZIhvcNAQELBQAw
EzERMA8GA1UEAwwIQ2hhbmdlTWUwIBcNMjMwMzI5MTI1NTI4WhgPMjA1MjEwMjIx
MjU1MjhaMBExDzANBgNVBAMMBk9rc2FuYTCCASIwDQYJKoZIhvcNAQEBBQADggEP
ADCCAQoCggEBAMQ1M730Fkk5ERaoJF8EhIzerQa3YwHgBtjT3rjkiD/jbkUim/xI
QhVHR4uzRPnUEESNksQJ9QJH6ltAVtGDa7W7NqH6iKdKm9K1ET7anzxEo0Raq0XU
CmNprlKFdp1F03uaAVSoZgQl6y3d161iJeQGfR0PM62CtENgLM6/bZ3J1PE3a6JM
8NkHREI6lqEin72spwFq/LLx+IXAXfAtZK4dtHX1/tPBDR5FoBSpSjXdhxpbndLa
HCL/qqyOIujEWGNXySCeK4kcU/46WTCN1ZboXTlMnOu0iRrXzWXChlz7yhvr/D18
pueQaOrbVFgm+HOhtujALqHZTGh9xdDyQhkCAwEAAaOBnzCBnDAJBgNVHRMEAjAA
MB0GA1UdDgQWBBQ3B4zB8M2q8vXSpa3kO84eZQdMfzBOBgNVHSMERzBFgBRbX5WN
YIzfTHP9fJrwYMIt6YGEMqEXpBUwEzERMA8GA1UEAwwIQ2hhbmdlTWWCFA7RyAF5
z45NVQ2yP4u1AIwGaRR9MBMGA1UdJQQMMAoGCCsGAQUFBwMCMAsGA1UdDwQEAwIH
gDANBgkqhkiG9w0BAQsFAAOCAQEAkvqFKwo4EWRZcki5V/dRmFUZMbjNBCd2gx6S
rozZFea6C0xhtwg0Sz6neKYfrjtHMlCdvBpkXanIx331aSo7d1tdrNfhprYhmtW0
B4QiMd6T1fG3Ch9+qQYnqcDmlrH7pYmGj/jEy6F9W/liNWTSWheQb5edB1+LOzqO
Os83idscp3Cgv4kgaNQr4eMHKZvjzANZL7GKKz1ptSBHTNGMpt7D6ywT34GK07pE
CQHJwzogAeKGssVCoiScDX+u87BqTYvlHQRN5l/VK65DKMH28NRdFLfcIF4zaZUP
eZ/rVY3Y6FBe+A8+pwDhkzkRzS76GfnrHQ5Casu/oXxq0SZOCw==
-----END CERTIFICATE-----
