Certificate:
    Data:
        Version: 3 (0x2)
        Serial Number:
            39:c2:2b:f3:49:04:06:84:79:71:a1:ca:ff:80:e0:64
        Signature Algorithm: sha256WithRSAEncryption
        Issuer: CN=ChangeMe
        Validity
            Not Before: Mar 29 12:55:27 2023 GMT
            Not After : Oct 22 12:55:27 2052 GMT
        Subject: CN=Svetlana
        Subject Public Key Info:
            Public Key Algorithm: rsaEncryption
                RSA Public-Key: (2048 bit)
                Modulus:
                    00:ac:67:aa:af:73:7c:35:ea:10:df:1b:6f:6b:21:
                    e8:77:48:75:64:6c:ab:b5:15:a8:92:8c:e2:c8:10:
                    2e:04:5e:c7:b2:df:64:bb:52:9c:68:63:06:72:ae:
                    af:7d:d3:e3:dd:e3:33:eb:19:5a:e1:b9:83:28:9e:
                    58:06:58:c9:d4:2c:c0:e3:58:3e:9f:1f:aa:c2:da:
                    17:e8:fa:33:74:ff:48:a8:3b:35:52:10:d4:2a:f9:
                    82:fd:ae:6b:99:d3:6e:5d:52:b0:68:8f:1b:b8:4c:
                    6a:73:d0:a9:d7:bc:d8:21:59:39:1c:6a:22:49:5f:
                    ff:eb:78:c4:4c:ce:9b:37:2e:0e:ef:2c:9f:20:9c:
                    a5:1a:34:f6:65:44:8d:3a:03:a4:13:8f:4b:56:a9:
                    9d:f1:1f:d0:02:05:de:e1:13:9e:1b:2b:aa:91:12:
                    08:87:9a:e2:b4:59:62:5c:f2:10:1d:1d:d1:b3:75:
                    db:b4:81:63:da:ff:ba:e4:ef:8d:70:16:0d:6d:5a:
                    c3:86:a8:da:14:e6:01:2b:ad:67:10:71:93:b1:51:
                    81:02:c5:c5:9f:01:1c:82:f1:df:4b:27:b8:d1:2c:
                    1c:19:2a:5e:6f:cc:7c:0d:86:20:a4:8a:c8:31:76:
                    6a:aa:a9:6a:35:cf:3e:c7:74:81:6e:e4:cf:d1:65:
                    a2:e5
                Exponent: 65537 (0x10001)
        X509v3 extensions:
            X509v3 Basic Constraints: 
                CA:FALSE
            X509v3 Subject Key Identifier: 
                63:4D:A0:EE:F8:64:3A:45:50:8A:0C:FC:96:F5:CD:70:F6:BF:8D:8E
            X509v3 Authority Key Identifier: 
                keyid:5B:5F:95:8D:60:8C:DF:4C:73:FD:7C:9A:F0:60:C2:2D:E9:81:84:32
                DirName:/CN=ChangeMe
                serial:0E:D1:C8:01:79:CF:8E:4D:55:0D:B2:3F:8B:B5:00:8C:06:69:14:7D

            X509v3 Extended Key Usage: 
                TLS Web Client Authentication
            X509v3 Key Usage: 
                Digital Signature
    Signature Algorithm: sha256WithRSAEncryption
         0d:72:2e:07:a1:3a:82:09:ad:60:bb:16:24:48:fd:36:f1:36:
         8e:e4:84:c4:62:d7:94:6b:73:90:7f:88:e3:fc:72:1a:8b:0e:
         5e:2a:80:b7:12:11:02:65:d1:1a:89:4d:5e:b5:47:c6:81:92:
         eb:0c:af:64:3e:02:a9:ba:fa:13:d5:cf:48:0f:20:30:b4:bc:
         aa:91:7f:76:72:37:de:0c:45:98:7e:51:4c:4e:b7:3c:4c:85:
         55:18:20:d4:43:45:49:39:1e:00:fc:fd:e8:55:b3:38:7f:3a:
         a9:59:ed:f3:7e:64:5b:60:0e:34:d6:53:01:78:d7:45:c0:b5:
         7f:58:5f:e2:e0:9d:f8:a1:d0:b6:ad:3d:55:43:c8:d6:60:d0:
         ac:bc:96:4b:36:84:1b:6c:a6:8f:41:ac:18:7a:21:f8:04:20:
         d6:76:d0:b6:d9:4e:c3:bc:69:01:cc:ab:fb:6d:76:52:c6:61:
         6c:cd:b2:db:15:b6:9f:da:3a:a4:ee:7a:35:45:2d:74:8f:3b:
         ff:d8:55:0a:28:d6:cc:f1:82:df:ed:12:d8:58:3a:55:30:8f:
         60:cb:11:ee:cf:fb:6f:33:d9:54:e2:56:b9:54:08:31:7e:a6:
         ab:51:91:d5:51:bc:ab:9c:65:85:31:66:ab:d8:50:6f:17:4d:
         00:e4:4b:47
-----BEGIN CERTIFICATE-----
MIIDUjCCAjqgAwIBAgIQOcIr80kEBoR5caHK/4DgZDANBgkqhkiG9w0BAQsFADAT
MREwDwYDVQQDDAhDaGFuZ2VNZTAgFw0yMzAzMjkxMjU1MjdaGA8yMDUyMTAyMjEy
NTUyN1owEzERMA8GA1UEAwwIU3ZldGxhbmEwggEiMA0GCSqGSIb3DQEBAQUAA4IB
DwAwggEKAoIBAQCsZ6qvc3w16hDfG29rIeh3SHVkbKu1FaiSjOLIEC4EXsey32S7
UpxoYwZyrq990+Pd4zPrGVrhuYMonlgGWMnULMDjWD6fH6rC2hfo+jN0/0ioOzVS
ENQq+YL9rmuZ025dUrBojxu4TGpz0KnXvNghWTkcaiJJX//reMRMzps3Lg7vLJ8g
nKUaNPZlRI06A6QTj0tWqZ3xH9ACBd7hE54bK6qREgiHmuK0WWJc8hAdHdGzddu0
gWPa/7rk741wFg1tWsOGqNoU5gErrWcQcZOxUYECxcWfARyC8d9LJ7jRLBwZKl5v
zHwNhiCkisgxdmqqqWo1zz7HdIFu5M/RZaLlAgMBAAGjgZ8wgZwwCQYDVR0TBAIw
ADAdBgNVHQ4EFgQUY02g7vhkOkVQigz8lvXNcPa/jY4wTgYDVR0jBEcwRYAUW1+V
jWCM30xz/Xya8GDCLemBhDKhF6QVMBMxETAPBgNVBAMMCENoYW5nZU1lghQO0cgB
ec+OTVUNsj+LtQCMBmkUfTATBgNVHSUEDDAKBggrBgEFBQcDAjALBgNVHQ8EBAMC
B4AwDQYJKoZIhvcNAQELBQADggEBAA1yLgehOoIJrWC7FiRI/TbxNo7khMRi15Rr
c5B/iOP8chqLDl4qgLcSEQJl0RqJTV61R8aBkusMr2Q+Aqm6+hPVz0gPIDC0vKqR
f3ZyN94MRZh+UUxOtzxMhVUYINRDRUk5HgD8/ehVszh/OqlZ7fN+ZFtgDjTWUwF4
10XAtX9YX+Lgnfih0LatPVVDyNZg0Ky8lks2hBtspo9BrBh6IfgEINZ20LbZTsO8
aQHMq/ttdlLGYWzNstsVtp/aOqTuejVFLXSPO//YVQoo1szxgt/tEthYOlUwj2DL
Ee7P+28z2VTiVrlUCDF+pqtRkdVRvKucZYUxZqvYUG8XTQDkS0c=
-----END CERTIFICATE-----
