Certificate:
    Data:
        Version: 3 (0x2)
        Serial Number:
            f1:14:89:48:58:16:7f:ef:ae:74:46:a0:88:49:b5:93
        Signature Algorithm: sha256WithRSAEncryption
        Issuer: CN=ChangeMe
        Validity
            Not Before: Mar 29 13:51:20 2023 GMT
            Not After : Oct 22 13:51:20 2052 GMT
        Subject: CN=Svetlana
        Subject Public Key Info:
            Public Key Algorithm: rsaEncryption
                RSA Public-Key: (2048 bit)
                Modulus:
                    00:b1:9e:01:f9:f0:39:5a:ed:da:e9:a9:85:2f:95:
                    d6:ac:9c:67:b9:1b:b4:2c:8d:45:a5:d9:9f:be:48:
                    27:0c:6b:fb:37:1a:fb:f4:27:3b:92:cd:6c:2c:1f:
                    b0:a1:dc:ea:29:53:06:18:da:90:df:84:95:da:2f:
                    50:0f:91:ee:4b:0e:76:76:2c:ae:4d:18:4b:d8:a2:
                    16:2b:74:e2:76:8f:1e:21:c5:33:bc:bf:71:11:88:
                    59:30:63:e5:79:50:39:a3:a0:d2:d9:01:97:0b:95:
                    ea:bd:df:21:44:c5:1f:4b:8d:9d:b9:4f:e0:4b:00:
                    cb:ba:01:79:81:00:d9:ea:46:b4:b2:90:21:e4:85:
                    d0:4f:0b:b7:aa:f3:d7:e8:33:32:30:65:16:d3:d8:
                    4f:2f:8f:18:c0:4e:9b:d7:71:8a:0f:ec:ac:fa:f8:
                    6d:25:b6:c8:e1:fa:50:94:5a:a8:99:46:c6:84:f8:
                    0d:f4:5d:de:32:28:ed:00:16:99:23:10:18:0d:61:
                    a0:33:3c:83:50:ae:3b:41:01:1b:2a:8f:4a:cb:11:
                    fc:43:81:6f:44:9e:7f:bc:27:5c:c0:64:e7:cb:e5:
                    ff:cf:09:d8:9d:be:58:30:52:82:94:2a:78:7f:73:
                    e9:00:ff:5e:d3:ee:bf:dd:66:82:d5:15:24:60:86:
                    0e:13
                Exponent: 65537 (0x10001)
        X509v3 extensions:
            X509v3 Basic Constraints: 
                CA:FALSE
            X509v3 Subject Key Identifier: 
                A3:B9:F4:CD:02:7E:4C:5A:59:34:56:D8:3B:15:29:ED:1C:6A:75:30
            X509v3 Authority Key Identifier: 
                keyid:C5:A9:69:17:7A:44:5E:50:EA:3E:16:C7:52:41:B5:E0:70:22:BF:B7
                DirName:/CN=ChangeMe
                serial:59:F7:CC:55:52:58:4E:A0:E0:33:4C:1C:63:C6:64:01:9D:55:77:FC

            X509v3 Extended Key Usage: 
                TLS Web Client Authentication
            X509v3 Key Usage: 
                Digital Signature
    Signature Algorithm: sha256WithRSAEncryption
         67:1e:32:57:66:dd:e9:35:3f:26:d1:0c:22:5d:47:64:4c:1a:
         de:cf:1a:74:bb:2e:ea:da:a7:8e:a7:4b:5b:c7:d8:2d:ea:78:
         cf:9d:b9:14:d5:8c:35:49:11:03:be:f2:17:d8:6c:7a:d6:f0:
         1b:b7:0a:dc:24:48:91:ef:b2:eb:1e:37:a0:05:fc:e2:1d:ff:
         b8:2d:ed:e5:6d:9e:0a:40:4d:0e:40:e4:22:fe:e3:a5:d1:35:
         3e:13:f3:94:a9:45:1e:8a:71:43:91:81:b5:12:90:45:56:98:
         dc:9a:69:8b:e4:1d:6c:1a:05:ef:0e:d1:09:6d:10:ad:28:8b:
         01:ee:57:e0:df:88:9b:65:f0:d0:07:af:ab:d5:34:b1:c6:f2:
         c9:da:56:7a:ae:38:41:58:43:0f:73:94:d2:8e:00:ac:b1:54:
         4d:a8:0d:ea:1f:82:c3:6f:fc:fe:01:8c:f8:a5:c4:fc:c5:3a:
         25:7a:ab:40:51:86:45:79:1b:60:5a:f7:1f:bb:29:0f:22:ba:
         47:b7:d6:7f:09:fb:00:39:71:eb:5e:bb:f6:6f:c8:24:6b:c3:
         b3:fc:bb:2c:8a:d8:28:8b:f0:62:83:e3:ca:78:58:e5:db:cc:
         b7:86:b6:ed:2b:ea:74:aa:d5:21:b2:ff:94:69:8b:17:ea:f4:
         9f:c7:c2:3f
-----BEGIN CERTIFICATE-----
MIIDUzCCAjugAwIBAgIRAPEUiUhYFn/vrnRGoIhJtZMwDQYJKoZIhvcNAQELBQAw
EzERMA8GA1UEAwwIQ2hhbmdlTWUwIBcNMjMwMzI5MTM1MTIwWhgPMjA1MjEwMjIx
MzUxMjBaMBMxETAPBgNVBAMMCFN2ZXRsYW5hMIIBIjANBgkqhkiG9w0BAQEFAAOC
AQ8AMIIBCgKCAQEAsZ4B+fA5Wu3a6amFL5XWrJxnuRu0LI1FpdmfvkgnDGv7Nxr7
9Cc7ks1sLB+wodzqKVMGGNqQ34SV2i9QD5HuSw52diyuTRhL2KIWK3Tido8eIcUz
vL9xEYhZMGPleVA5o6DS2QGXC5Xqvd8hRMUfS42duU/gSwDLugF5gQDZ6ka0spAh
5IXQTwu3qvPX6DMyMGUW09hPL48YwE6b13GKD+ys+vhtJbbI4fpQlFqomUbGhPgN
9F3eMijtABaZIxAYDWGgMzyDUK47QQEbKo9KyxH8Q4FvRJ5/vCdcwGTny+X/zwnY
nb5YMFKClCp4f3PpAP9e0+6/3WaC1RUkYIYOEwIDAQABo4GfMIGcMAkGA1UdEwQC
MAAwHQYDVR0OBBYEFKO59M0CfkxaWTRW2DsVKe0canUwME4GA1UdIwRHMEWAFMWp
aRd6RF5Q6j4Wx1JBteBwIr+3oRekFTATMREwDwYDVQQDDAhDaGFuZ2VNZYIUWffM
VVJYTqDgM0wcY8ZkAZ1Vd/wwEwYDVR0lBAwwCgYIKwYBBQUHAwIwCwYDVR0PBAQD
AgeAMA0GCSqGSIb3DQEBCwUAA4IBAQBnHjJXZt3pNT8m0QwiXUdkTBrezxp0uy7q
2qeOp0tbx9gt6njPnbkU1Yw1SREDvvIX2Gx61vAbtwrcJEiR77LrHjegBfziHf+4
Le3lbZ4KQE0OQOQi/uOl0TU+E/OUqUUeinFDkYG1EpBFVpjcmmmL5B1sGgXvDtEJ
bRCtKIsB7lfg34ibZfDQB6+r1TSxxvLJ2lZ6rjhBWEMPc5TSjgCssVRNqA3qH4LD
b/z+AYz4pcT8xToleqtAUYZFeRtgWvcfuykPIrpHt9Z/CfsAOXHrXrv2b8gka8Oz
/Lssitgoi/Big+PKeFjl28y3hrbtK+p0qtUhsv+UaYsX6vSfx8I/
-----END CERTIFICATE-----
