Certificate:
    Data:
        Version: 3 (0x2)
        Serial Number:
            6e:57:3f:81:26:69:41:43:d7:cf:fe:19:85:69:75:a1
        Signature Algorithm: sha256WithRSAEncryption
        Issuer: CN=ChangeMe
        Validity
            Not Before: Mar 29 13:51:31 2023 GMT
            Not After : Oct 22 13:51:31 2052 GMT
        Subject: CN=user6
        Subject Public Key Info:
            Public Key Algorithm: rsaEncryption
                RSA Public-Key: (2048 bit)
                Modulus:
                    00:a7:f5:67:97:8b:6e:62:fa:99:0b:69:8d:5e:fb:
                    b8:d2:fa:2f:a1:53:b0:c3:1d:4e:1a:32:1e:d4:11:
                    f3:6d:8e:f6:3f:a2:60:7a:a3:b7:49:79:4a:72:18:
                    76:1a:ac:ae:8d:78:08:1b:e4:a5:ac:2a:17:a7:c3:
                    08:d0:92:29:44:a2:71:18:34:da:86:d5:fd:76:8c:
                    06:0d:cf:45:fc:92:f4:eb:0e:3b:96:9d:1d:92:5a:
                    4a:6f:8f:a1:98:6c:63:6c:05:88:87:3d:f0:c3:c4:
                    89:c1:45:85:e8:b5:bb:cf:75:91:46:28:87:2f:06:
                    43:80:b0:df:aa:ec:0d:da:16:68:45:94:14:c1:8e:
                    2a:ec:39:db:49:0c:49:79:38:74:e2:ea:34:43:ad:
                    a7:43:f8:06:3b:de:1e:84:b0:05:67:b2:c3:db:bf:
                    30:81:9b:24:75:dc:f7:7e:01:c1:6b:94:ac:e0:be:
                    72:72:ea:29:0a:66:a4:0f:60:84:c7:fc:70:ec:55:
                    44:30:f7:69:31:ee:fe:de:90:bf:f5:0d:a6:65:79:
                    83:27:74:df:35:39:04:53:e5:29:64:5d:86:a0:9f:
                    b4:25:37:f8:8f:ee:35:45:e0:22:a7:75:61:92:42:
                    1e:73:d3:61:dc:ad:fd:78:3f:34:19:3e:71:f3:56:
                    9e:81
                Exponent: 65537 (0x10001)
        X509v3 extensions:
            X509v3 Basic Constraints: 
                CA:FALSE
            X509v3 Subject Key Identifier: 
                EA:73:77:91:54:4E:C8:1C:2E:2C:A2:16:68:5D:A2:F7:D9:98:19:1E
            X509v3 Authority Key Identifier: 
                keyid:C5:A9:69:17:7A:44:5E:50:EA:3E:16:C7:52:41:B5:E0:70:22:BF:B7
                DirName:/CN=ChangeMe
                serial:59:F7:CC:55:52:58:4E:A0:E0:33:4C:1C:63:C6:64:01:9D:55:77:FC

            X509v3 Extended Key Usage: 
                TLS Web Client Authentication
            X509v3 Key Usage: 
                Digital Signature
    Signature Algorithm: sha256WithRSAEncryption
         10:aa:cc:3e:26:23:33:e1:f2:b7:6a:37:89:e3:0c:df:34:7f:
         b8:50:9c:32:1d:e5:5d:49:d9:4d:28:5f:c4:43:e4:56:66:ca:
         ee:55:e3:6f:25:f6:86:d9:c6:32:a2:d8:b5:a4:2e:3e:ee:ff:
         8a:d2:59:60:78:f8:be:13:26:86:4b:de:90:d5:02:87:77:97:
         27:85:55:25:11:24:95:38:0e:b1:fa:28:6a:36:fd:f8:4e:5d:
         f7:cf:e2:0e:b2:4e:f7:fb:79:f9:be:c1:84:3f:8c:f2:00:63:
         ea:60:09:4b:8a:0d:2a:e7:d8:f9:32:8d:ab:c1:0c:d1:54:15:
         a7:6f:6c:fe:5e:35:db:be:a4:80:80:72:fd:ef:c2:77:71:f9:
         4d:8b:62:f2:e1:43:b1:f8:09:9a:71:3d:0e:37:28:f5:ca:88:
         be:46:a2:30:52:18:2a:44:66:47:06:2a:2e:a1:b0:56:de:ba:
         f7:8b:83:f5:d8:7c:ff:ed:33:16:db:29:43:cb:5b:15:14:34:
         ac:6e:1c:d0:0f:c4:00:b4:ed:70:0e:70:c5:2e:25:9c:c8:07:
         bd:7f:33:3b:4f:45:1f:b8:f6:a3:7a:82:29:f0:46:af:83:e7:
         e2:4e:46:d0:d5:78:e3:bd:9c:31:96:da:b3:5e:79:b0:7b:57:
         58:f3:6e:00
-----BEGIN CERTIFICATE-----
MIIDTzCCAjegAwIBAgIQblc/gSZpQUPXz/4ZhWl1oTANBgkqhkiG9w0BAQsFADAT
MREwDwYDVQQDDAhDaGFuZ2VNZTAgFw0yMzAzMjkxMzUxMzFaGA8yMDUyMTAyMjEz
NTEzMVowEDEOMAwGA1UEAwwFdXNlcjYwggEiMA0GCSqGSIb3DQEBAQUAA4IBDwAw
ggEKAoIBAQCn9WeXi25i+pkLaY1e+7jS+i+hU7DDHU4aMh7UEfNtjvY/omB6o7dJ
eUpyGHYarK6NeAgb5KWsKhenwwjQkilEonEYNNqG1f12jAYNz0X8kvTrDjuWnR2S
Wkpvj6GYbGNsBYiHPfDDxInBRYXotbvPdZFGKIcvBkOAsN+q7A3aFmhFlBTBjirs
OdtJDEl5OHTi6jRDradD+AY73h6EsAVnssPbvzCBmyR13Pd+AcFrlKzgvnJy6ikK
ZqQPYITH/HDsVUQw92kx7v7ekL/1DaZleYMndN81OQRT5SlkXYagn7QlN/iP7jVF
4CKndWGSQh5z02Hcrf14PzQZPnHzVp6BAgMBAAGjgZ8wgZwwCQYDVR0TBAIwADAd
BgNVHQ4EFgQU6nN3kVROyBwuLKIWaF2i99mYGR4wTgYDVR0jBEcwRYAUxalpF3pE
XlDqPhbHUkG14HAiv7ehF6QVMBMxETAPBgNVBAMMCENoYW5nZU1lghRZ98xVUlhO
oOAzTBxjxmQBnVV3/DATBgNVHSUEDDAKBggrBgEFBQcDAjALBgNVHQ8EBAMCB4Aw
DQYJKoZIhvcNAQELBQADggEBABCqzD4mIzPh8rdqN4njDN80f7hQnDId5V1J2U0o
X8RD5FZmyu5V428l9obZxjKi2LWkLj7u/4rSWWB4+L4TJoZL3pDVAod3lyeFVSUR
JJU4DrH6KGo2/fhOXffP4g6yTvf7efm+wYQ/jPIAY+pgCUuKDSrn2PkyjavBDNFU
FadvbP5eNdu+pICAcv3vwndx+U2LYvLhQ7H4CZpxPQ43KPXKiL5GojBSGCpEZkcG
Ki6hsFbeuveLg/XYfP/tMxbbKUPLWxUUNKxuHNAPxAC07XAOcMUuJZzIB71/MztP
RR+49qN6ginwRq+D5+JORtDVeOO9nDGW2rNeebB7V1jzbgA=
-----END CERTIFICATE-----
