Certificate:
    Data:
        Version: 3 (0x2)
        Serial Number:
            75:e7:c8:0d:be:bc:0a:50:99:ae:21:ab:fd:4e:85:7d
        Signature Algorithm: sha256WithRSAEncryption
        Issuer: CN=ChangeMe
        Validity
            Not Before: Mar 29 12:55:39 2023 GMT
            Not After : Oct 22 12:55:39 2052 GMT
        Subject: CN=user8
        Subject Public Key Info:
            Public Key Algorithm: rsaEncryption
                RSA Public-Key: (2048 bit)
                Modulus:
                    00:d2:7f:41:78:9f:4a:fe:b6:6a:6b:9e:62:30:cb:
                    03:a0:a8:36:16:83:70:91:5f:fb:58:d0:42:50:fd:
                    9c:88:ee:11:9d:2e:5b:34:8d:8c:a1:65:c2:81:6f:
                    71:bd:f8:7e:5f:37:17:4c:04:fe:18:98:d7:03:06:
                    9f:1f:95:51:47:7d:a0:44:a2:0b:3a:80:f6:d3:ae:
                    09:01:05:c3:b5:2c:fa:64:6b:84:ec:ed:15:a2:db:
                    36:15:43:d3:3b:b0:d9:c1:57:3a:97:fe:3d:33:8a:
                    c0:4f:d2:7a:a4:ab:00:e5:26:d5:be:b9:da:53:46:
                    15:70:96:f7:ae:5a:48:4b:31:4a:b7:84:10:92:0d:
                    97:5e:a6:7a:25:c4:11:4a:f5:6b:8f:2d:2b:3c:80:
                    90:f3:d0:c2:99:fa:45:a1:d0:1c:b8:93:86:90:38:
                    44:fb:c0:35:50:05:66:3a:9a:41:c0:e4:98:e3:31:
                    2b:9a:25:86:96:ce:d9:cf:66:b6:e8:55:1f:9e:d7:
                    89:5a:b9:94:da:a2:2a:39:8c:f6:cd:1e:c8:30:15:
                    c7:9e:1a:bd:df:ca:f2:af:8b:2e:0b:d2:a4:90:84:
                    bf:15:d4:15:0c:3c:4b:eb:6d:bf:03:7a:1b:5b:6a:
                    95:91:34:53:b1:e2:ce:d9:f3:b3:d5:59:be:dd:5c:
                    e2:29
                Exponent: 65537 (0x10001)
        X509v3 extensions:
            X509v3 Basic Constraints: 
                CA:FALSE
            X509v3 Subject Key Identifier: 
                4E:F5:2A:20:94:01:78:F3:DE:9F:EF:63:1E:11:8F:92:B1:6D:7D:2B
            X509v3 Authority Key Identifier: 
                keyid:5B:5F:95:8D:60:8C:DF:4C:73:FD:7C:9A:F0:60:C2:2D:E9:81:84:32
                DirName:/CN=ChangeMe
                serial:0E:D1:C8:01:79:CF:8E:4D:55:0D:B2:3F:8B:B5:00:8C:06:69:14:7D

            X509v3 Extended Key Usage: 
                TLS Web Client Authentication
            X509v3 Key Usage: 
                Digital Signature
    Signature Algorithm: sha256WithRSAEncryption
         ad:24:76:b0:2b:91:bb:6b:f5:be:45:40:84:a3:f1:f2:d9:25:
         df:94:87:ff:7f:a0:51:5e:c9:07:05:95:5c:13:8e:24:f8:a7:
         fe:38:6b:6e:0e:44:87:a0:8b:7c:e4:ad:0e:60:6e:b7:9e:09:
         5d:93:6c:f9:d5:15:fb:a8:08:a9:f7:43:21:16:88:7f:b1:46:
         24:f3:da:35:4d:f9:84:b3:2b:1b:28:3e:3d:b3:fb:bd:64:e9:
         26:ce:44:32:2f:3e:8a:39:a4:c6:1b:fc:76:cf:f9:15:fe:f0:
         b7:0f:9b:a8:78:d2:d1:b8:ae:c6:66:bb:8a:4f:40:12:94:11:
         83:ff:12:05:1a:8e:9a:69:74:8f:a6:3f:8f:49:e5:0c:e3:c8:
         03:d2:78:65:c0:a1:99:7c:63:9a:c3:63:55:eb:72:02:77:63:
         12:91:db:c8:81:9b:49:5c:03:04:92:50:65:e7:ef:54:41:2a:
         1b:05:87:46:63:a4:29:c4:f9:5f:f4:01:cf:cc:ac:56:1e:af:
         b0:fc:0c:c4:94:0a:8a:0b:16:a4:12:1a:7a:d7:f1:5a:fd:e2:
         1d:5d:cb:e4:4f:b8:6c:07:59:51:3a:ed:40:80:01:c8:85:23:
         8b:30:85:05:d1:92:47:de:f4:85:92:37:9b:80:3c:e4:d8:d8:
         22:d8:e1:f0
-----BEGIN CERTIFICATE-----
MIIDTzCCAjegAwIBAgIQdefIDb68ClCZriGr/U6FfTANBgkqhkiG9w0BAQsFADAT
MREwDwYDVQQDDAhDaGFuZ2VNZTAgFw0yMzAzMjkxMjU1MzlaGA8yMDUyMTAyMjEy
NTUzOVowEDEOMAwGA1UEAwwFdXNlcjgwggEiMA0GCSqGSIb3DQEBAQUAA4IBDwAw
ggEKAoIBAQDSf0F4n0r+tmprnmIwywOgqDYWg3CRX/tY0EJQ/ZyI7hGdLls0jYyh
ZcKBb3G9+H5fNxdMBP4YmNcDBp8flVFHfaBEogs6gPbTrgkBBcO1LPpka4Ts7RWi
2zYVQ9M7sNnBVzqX/j0zisBP0nqkqwDlJtW+udpTRhVwlveuWkhLMUq3hBCSDZde
pnolxBFK9WuPLSs8gJDz0MKZ+kWh0By4k4aQOET7wDVQBWY6mkHA5JjjMSuaJYaW
ztnPZrboVR+e14lauZTaoio5jPbNHsgwFceeGr3fyvKviy4L0qSQhL8V1BUMPEvr
bb8DehtbapWRNFOx4s7Z87PVWb7dXOIpAgMBAAGjgZ8wgZwwCQYDVR0TBAIwADAd
BgNVHQ4EFgQUTvUqIJQBePPen+9jHhGPkrFtfSswTgYDVR0jBEcwRYAUW1+VjWCM
30xz/Xya8GDCLemBhDKhF6QVMBMxETAPBgNVBAMMCENoYW5nZU1lghQO0cgBec+O
TVUNsj+LtQCMBmkUfTATBgNVHSUEDDAKBggrBgEFBQcDAjALBgNVHQ8EBAMCB4Aw
DQYJKoZIhvcNAQELBQADggEBAK0kdrArkbtr9b5FQISj8fLZJd+Uh/9/oFFeyQcF
lVwTjiT4p/44a24ORIegi3zkrQ5gbreeCV2TbPnVFfuoCKn3QyEWiH+xRiTz2jVN
+YSzKxsoPj2z+71k6SbORDIvPoo5pMYb/HbP+RX+8LcPm6h40tG4rsZmu4pPQBKU
EYP/EgUajpppdI+mP49J5QzjyAPSeGXAoZl8Y5rDY1XrcgJ3YxKR28iBm0lcAwSS
UGXn71RBKhsFh0ZjpCnE+V/0Ac/MrFYer7D8DMSUCooLFqQSGnrX8Vr94h1dy+RP
uGwHWVE67UCAAciFI4swhQXRkkfe9IWSN5uAPOTY2CLY4fA=
-----END CERTIFICATE-----
