Certificate:
    Data:
        Version: 3 (0x2)
        Serial Number:
            6b:00:10:46:b5:ab:1d:f3:6e:68:a9:2c:c4:b5:a9:20
        Signature Algorithm: sha256WithRSAEncryption
        Issuer: CN=ChangeMe
        Validity
            Not Before: Mar 29 13:51:33 2023 GMT
            Not After : Oct 22 13:51:33 2052 GMT
        Subject: CN=user8
        Subject Public Key Info:
            Public Key Algorithm: rsaEncryption
                RSA Public-Key: (2048 bit)
                Modulus:
                    00:d0:92:ac:93:02:6e:6e:b1:60:78:b9:75:16:b9:
                    35:8a:e4:ed:a9:e9:02:24:d4:0b:5f:93:cd:6e:66:
                    5b:ca:de:11:00:02:66:4b:a3:0e:f8:33:04:b6:b5:
                    31:51:97:04:10:bd:ee:c5:8c:a0:ff:f1:d1:33:09:
                    7f:f0:87:98:cb:ec:57:c5:93:e9:e6:73:61:57:d8:
                    14:4f:c9:00:b6:d4:a6:86:e0:47:ca:4f:6b:14:74:
                    83:79:9c:2f:88:d2:e7:92:c3:5b:dd:82:cb:33:89:
                    05:a9:d9:23:9c:54:55:8e:9b:47:dc:b2:94:cf:78:
                    30:4a:03:dc:97:e9:aa:49:eb:c0:72:88:81:da:17:
                    46:a4:5a:bb:9f:ab:e8:92:62:04:a0:12:2e:d6:da:
                    77:92:4e:8c:9b:f1:7d:68:7a:19:56:22:86:16:72:
                    65:64:e8:4d:ab:13:60:3c:68:c5:e7:83:43:50:4f:
                    7e:6b:b7:e2:fa:35:35:e5:52:42:cb:b5:a6:01:ae:
                    0a:89:9f:5c:a7:69:42:0d:b6:13:42:ba:25:82:d4:
                    53:43:20:14:6b:5f:0a:16:20:9b:18:48:23:9e:87:
                    3c:5f:f1:d3:24:16:a0:a0:5e:28:e7:b2:3f:c1:19:
                    83:81:0b:25:46:86:69:4e:8f:d5:e3:67:87:4b:c8:
                    7c:bf
                Exponent: 65537 (0x10001)
        X509v3 extensions:
            X509v3 Basic Constraints: 
                CA:FALSE
            X509v3 Subject Key Identifier: 
                4A:CB:8E:BD:19:32:2D:83:25:DE:A4:4B:5A:45:46:DF:20:D0:BE:CE
            X509v3 Authority Key Identifier: 
                keyid:C5:A9:69:17:7A:44:5E:50:EA:3E:16:C7:52:41:B5:E0:70:22:BF:B7
                DirName:/CN=ChangeMe
                serial:59:F7:CC:55:52:58:4E:A0:E0:33:4C:1C:63:C6:64:01:9D:55:77:FC

            X509v3 Extended Key Usage: 
                TLS Web Client Authentication
            X509v3 Key Usage: 
                Digital Signature
    Signature Algorithm: sha256WithRSAEncryption
         b2:ec:4f:c8:e1:d1:47:54:cc:92:fb:5c:fc:46:a6:ca:e2:ea:
         60:8c:e9:f6:a7:43:79:21:17:c9:30:be:5e:0e:e2:26:86:0c:
         4c:16:9e:4f:c0:49:7b:1f:2d:8e:2a:bc:c2:51:10:f3:0c:44:
         1b:22:1c:95:23:27:90:23:99:06:8c:e0:a5:ad:05:8b:45:91:
         76:e1:02:e5:dd:5f:52:a9:79:6c:45:aa:54:03:3a:75:04:a8:
         6c:85:f9:b9:5c:8b:7f:22:b8:6e:36:75:bc:d3:fb:40:ec:1c:
         4c:c3:3d:0b:b9:36:d7:61:7c:07:aa:0d:56:4d:bc:0b:88:8a:
         12:3a:bd:10:cc:c9:de:20:30:44:e0:60:ac:20:51:db:1a:00:
         42:35:15:08:b2:9d:38:2e:26:f1:8d:de:fe:61:05:af:95:83:
         ea:20:de:06:cf:5f:3f:a2:bd:a7:ad:0c:1f:3a:07:49:ae:fb:
         fa:81:8a:89:6c:73:87:38:7c:d0:b4:6f:65:74:81:be:ce:cb:
         0d:47:53:08:38:95:88:6f:cd:05:e5:21:fb:dd:1f:6b:54:2b:
         c9:ec:9b:43:32:43:ae:10:67:35:b7:64:90:06:24:1e:07:d4:
         1f:2e:3d:ad:0f:c2:c7:f8:87:bd:fe:ff:d1:91:d1:1b:ca:cb:
         d6:36:26:f9
-----BEGIN CERTIFICATE-----
MIIDTzCCAjegAwIBAgIQawAQRrWrHfNuaKksxLWpIDANBgkqhkiG9w0BAQsFADAT
MREwDwYDVQQDDAhDaGFuZ2VNZTAgFw0yMzAzMjkxMzUxMzNaGA8yMDUyMTAyMjEz
NTEzM1owEDEOMAwGA1UEAwwFdXNlcjgwggEiMA0GCSqGSIb3DQEBAQUAA4IBDwAw
ggEKAoIBAQDQkqyTAm5usWB4uXUWuTWK5O2p6QIk1Atfk81uZlvK3hEAAmZLow74
MwS2tTFRlwQQve7FjKD/8dEzCX/wh5jL7FfFk+nmc2FX2BRPyQC21KaG4EfKT2sU
dIN5nC+I0ueSw1vdgssziQWp2SOcVFWOm0fcspTPeDBKA9yX6apJ68ByiIHaF0ak
Wrufq+iSYgSgEi7W2neSToyb8X1oehlWIoYWcmVk6E2rE2A8aMXng0NQT35rt+L6
NTXlUkLLtaYBrgqJn1ynaUINthNCuiWC1FNDIBRrXwoWIJsYSCOehzxf8dMkFqCg
Xijnsj/BGYOBCyVGhmlOj9XjZ4dLyHy/AgMBAAGjgZ8wgZwwCQYDVR0TBAIwADAd
BgNVHQ4EFgQUSsuOvRkyLYMl3qRLWkVG3yDQvs4wTgYDVR0jBEcwRYAUxalpF3pE
XlDqPhbHUkG14HAiv7ehF6QVMBMxETAPBgNVBAMMCENoYW5nZU1lghRZ98xVUlhO
oOAzTBxjxmQBnVV3/DATBgNVHSUEDDAKBggrBgEFBQcDAjALBgNVHQ8EBAMCB4Aw
DQYJKoZIhvcNAQELBQADggEBALLsT8jh0UdUzJL7XPxGpsri6mCM6fanQ3khF8kw
vl4O4iaGDEwWnk/ASXsfLY4qvMJREPMMRBsiHJUjJ5AjmQaM4KWtBYtFkXbhAuXd
X1KpeWxFqlQDOnUEqGyF+blci38iuG42dbzT+0DsHEzDPQu5NtdhfAeqDVZNvAuI
ihI6vRDMyd4gMETgYKwgUdsaAEI1FQiynTguJvGN3v5hBa+Vg+og3gbPXz+ivaet
DB86B0mu+/qBiolsc4c4fNC0b2V0gb7Oyw1HUwg4lYhvzQXlIfvdH2tUK8nsm0My
Q64QZzW3ZJAGJB4H1B8uPa0Pwsf4h73+/9GR0RvKy9Y2Jvk=
-----END CERTIFICATE-----
