Certificate:
    Data:
        Version: 3 (0x2)
        Serial Number:
            d9:f6:ef:cb:6f:07:13:85:52:64:d4:b2:ba:ae:1f:67
        Signature Algorithm: sha256WithRSAEncryption
        Issuer: CN=ChangeMe
        Validity
            Not Before: Mar 29 12:55:31 2023 GMT
            Not After : Oct 22 12:55:31 2052 GMT
        Subject: CN=user1
        Subject Public Key Info:
            Public Key Algorithm: rsaEncryption
                RSA Public-Key: (2048 bit)
                Modulus:
                    00:a6:76:31:5e:bf:d2:a6:74:cf:24:ca:c0:dc:4f:
                    70:4d:6b:9c:dd:2e:62:6b:79:72:8a:20:a2:19:21:
                    52:cb:07:ff:e2:f4:50:eb:aa:a5:3b:5f:04:38:41:
                    3f:3e:ea:7c:ed:3d:49:35:49:81:cd:99:a7:42:e3:
                    fe:1b:e9:44:5d:d0:78:1c:08:7b:4c:75:df:da:25:
                    db:6d:c8:ce:8d:32:b1:7b:26:de:58:a7:0e:c8:83:
                    e7:b6:61:8a:09:f9:bf:01:d9:66:f1:c1:e7:cc:47:
                    eb:e0:3c:0f:70:28:a3:e3:b3:39:60:5e:55:35:b2:
                    ff:83:46:92:37:84:02:d4:54:78:42:4b:b5:24:26:
                    d0:9e:92:e1:6a:c4:e4:d4:47:87:72:9a:cc:8b:3d:
                    fd:26:9d:4f:ad:7c:ab:e8:08:46:4a:61:f4:21:c0:
                    34:c9:81:a5:dd:4c:fa:1d:31:5f:a8:92:90:dc:fb:
                    07:f4:d5:c2:36:5a:be:ac:a7:78:65:11:60:57:b0:
                    2d:b5:6d:c1:d9:44:12:0d:7d:2d:86:d6:0c:b1:37:
                    0c:47:15:0e:18:8f:6a:8b:c6:0f:cc:48:db:40:1a:
                    83:ba:58:04:17:a7:f3:c2:42:72:bb:02:19:17:ae:
                    1b:5d:1c:9f:93:88:21:5e:b2:8e:d3:63:08:54:55:
                    d2:3f
                Exponent: 65537 (0x10001)
        X509v3 extensions:
            X509v3 Basic Constraints: 
                CA:FALSE
            X509v3 Subject Key Identifier: 
                60:9E:75:76:6C:A6:AB:94:02:9E:57:4E:1D:9B:6C:C4:39:7C:5E:EE
            X509v3 Authority Key Identifier: 
                keyid:5B:5F:95:8D:60:8C:DF:4C:73:FD:7C:9A:F0:60:C2:2D:E9:81:84:32
                DirName:/CN=ChangeMe
                serial:0E:D1:C8:01:79:CF:8E:4D:55:0D:B2:3F:8B:B5:00:8C:06:69:14:7D

            X509v3 Extended Key Usage: 
                TLS Web Client Authentication
            X509v3 Key Usage: 
                Digital Signature
    Signature Algorithm: sha256WithRSAEncryption
         34:0f:20:c4:fc:99:42:6f:5b:a5:21:22:86:37:ac:11:7f:55:
         3f:2a:b4:0b:60:b5:b9:26:56:cf:ae:ae:c3:11:05:e5:b9:5d:
         53:cd:6c:2d:e2:03:64:ab:4d:64:59:cd:8c:f6:49:50:d2:19:
         b8:34:96:ac:ab:9f:b1:6e:04:1e:2a:77:b2:07:38:09:9c:1e:
         a0:17:92:50:81:9b:52:53:e6:cb:0b:01:fb:14:96:55:6c:85:
         92:c4:53:cf:f1:1f:20:5a:18:78:44:72:c7:b5:b1:5b:ab:7f:
         2d:7e:45:a4:4e:3c:3f:6c:09:92:b3:e8:ac:93:40:42:40:02:
         9d:03:23:f3:aa:af:7d:0c:06:1e:14:a5:4d:ff:50:d7:af:fa:
         da:27:12:98:52:90:19:63:ed:87:c6:0c:40:7e:1a:8a:77:63:
         a2:c6:45:0c:5c:0a:45:b3:11:f1:7d:0e:b8:a4:56:98:80:a3:
         f4:f0:fa:d7:76:3d:13:05:ee:32:6e:3e:78:ab:ea:d9:5a:d5:
         1d:b9:ea:24:55:0f:70:ee:0e:b8:1f:d0:42:61:3f:a5:00:fc:
         f1:35:1c:75:ec:d7:e1:dd:c1:05:59:ee:ab:04:6e:49:28:d1:
         4e:41:9b:c0:ca:02:9f:ea:54:04:7e:f8:97:99:b0:54:8e:bc:
         51:66:37:11
-----BEGIN CERTIFICATE-----
MIIDUDCCAjigAwIBAgIRANn278tvBxOFUmTUsrquH2cwDQYJKoZIhvcNAQELBQAw
EzERMA8GA1UEAwwIQ2hhbmdlTWUwIBcNMjMwMzI5MTI1NTMxWhgPMjA1MjEwMjIx
MjU1MzFaMBAxDjAMBgNVBAMMBXVzZXIxMIIBIjANBgkqhkiG9w0BAQEFAAOCAQ8A
MIIBCgKCAQEApnYxXr/SpnTPJMrA3E9wTWuc3S5ia3lyiiCiGSFSywf/4vRQ66ql
O18EOEE/Pup87T1JNUmBzZmnQuP+G+lEXdB4HAh7THXf2iXbbcjOjTKxeybeWKcO
yIPntmGKCfm/Adlm8cHnzEfr4DwPcCij47M5YF5VNbL/g0aSN4QC1FR4Qku1JCbQ
npLhasTk1EeHcprMiz39Jp1PrXyr6AhGSmH0IcA0yYGl3Uz6HTFfqJKQ3PsH9NXC
Nlq+rKd4ZRFgV7AttW3B2UQSDX0thtYMsTcMRxUOGI9qi8YPzEjbQBqDulgEF6fz
wkJyuwIZF64bXRyfk4ghXrKO02MIVFXSPwIDAQABo4GfMIGcMAkGA1UdEwQCMAAw
HQYDVR0OBBYEFGCedXZspquUAp5XTh2bbMQ5fF7uME4GA1UdIwRHMEWAFFtflY1g
jN9Mc/18mvBgwi3pgYQyoRekFTATMREwDwYDVQQDDAhDaGFuZ2VNZYIUDtHIAXnP
jk1VDbI/i7UAjAZpFH0wEwYDVR0lBAwwCgYIKwYBBQUHAwIwCwYDVR0PBAQDAgeA
MA0GCSqGSIb3DQEBCwUAA4IBAQA0DyDE/JlCb1ulISKGN6wRf1U/KrQLYLW5JlbP
rq7DEQXluV1TzWwt4gNkq01kWc2M9klQ0hm4NJasq5+xbgQeKneyBzgJnB6gF5JQ
gZtSU+bLCwH7FJZVbIWSxFPP8R8gWhh4RHLHtbFbq38tfkWkTjw/bAmSs+isk0BC
QAKdAyPzqq99DAYeFKVN/1DXr/raJxKYUpAZY+2HxgxAfhqKd2OixkUMXApFsxHx
fQ64pFaYgKP08PrXdj0TBe4ybj54q+rZWtUdueokVQ9w7g64H9BCYT+lAPzxNRx1
7Nfh3cEFWe6rBG5JKNFOQZvAygKf6lQEfviXmbBUjrxRZjcR
-----END CERTIFICATE-----
