Certificate:
    Data:
        Version: 3 (0x2)
        Serial Number:
            33:11:03:db:a6:d8:f3:3d:96:ec:30:58:e0:e1:aa:40
        Signature Algorithm: sha256WithRSAEncryption
        Issuer: CN=ChangeMe
        Validity
            Not Before: Mar 29 12:55:37 2023 GMT
            Not After : Oct 22 12:55:37 2052 GMT
        Subject: CN=user6
        Subject Public Key Info:
            Public Key Algorithm: rsaEncryption
                RSA Public-Key: (2048 bit)
                Modulus:
                    00:bb:93:2a:2c:51:dd:9c:d6:92:e0:0c:66:48:51:
                    ef:2a:81:21:38:34:67:ec:0c:14:3e:a0:2b:52:ce:
                    47:fc:8f:cc:45:c3:53:07:04:40:77:5b:6b:52:01:
                    3e:39:73:02:42:6d:fd:72:0c:c5:5e:29:39:d9:7f:
                    f6:46:c2:7e:41:1d:f6:a4:f0:69:1b:c0:d7:8c:6e:
                    d3:61:d9:f7:41:bf:51:58:2f:96:66:ac:74:18:92:
                    c9:1a:89:3a:e4:2f:01:88:56:c1:20:18:97:56:7c:
                    11:cc:49:51:c6:6d:c9:12:79:9b:08:80:a9:2b:55:
                    1d:88:cd:de:69:71:1c:e4:6e:09:86:bf:21:f5:5f:
                    07:e1:b0:fb:32:19:ca:d6:74:78:33:4f:f1:23:d2:
                    c7:fb:cd:bd:c8:ed:37:e8:c5:36:a2:5a:be:fb:8e:
                    ef:25:34:d2:e6:c7:df:7a:bf:65:c6:a8:e1:cd:81:
                    b1:81:cc:0c:42:e3:83:bd:72:09:72:7a:72:a0:be:
                    c9:69:70:02:fd:38:d5:15:d9:5c:80:53:ac:05:e1:
                    2e:e1:02:44:ee:70:43:91:5e:4e:86:16:ac:42:c5:
                    d9:81:d0:fc:fa:99:88:a0:9d:85:af:4e:a4:94:e2:
                    f7:a5:60:c1:07:45:99:7e:05:fa:e4:8e:3b:85:39:
                    a8:63
                Exponent: 65537 (0x10001)
        X509v3 extensions:
            X509v3 Basic Constraints: 
                CA:FALSE
            X509v3 Subject Key Identifier: 
                59:F4:CC:E2:A4:27:F2:4C:51:4D:25:51:32:49:33:D9:A2:D1:EA:C4
            X509v3 Authority Key Identifier: 
                keyid:5B:5F:95:8D:60:8C:DF:4C:73:FD:7C:9A:F0:60:C2:2D:E9:81:84:32
                DirName:/CN=ChangeMe
                serial:0E:D1:C8:01:79:CF:8E:4D:55:0D:B2:3F:8B:B5:00:8C:06:69:14:7D

            X509v3 Extended Key Usage: 
                TLS Web Client Authentication
            X509v3 Key Usage: 
                Digital Signature
    Signature Algorithm: sha256WithRSAEncryption
         28:a5:01:f0:aa:52:a4:4f:0a:f7:10:b6:bc:17:40:0d:04:2b:
         28:f1:ce:28:df:9e:ca:94:b5:77:67:6a:f9:c8:3a:c8:85:d2:
         02:1c:1a:23:9d:22:f1:f1:7b:43:22:50:bc:c1:55:d8:5f:7a:
         90:8d:93:aa:80:08:9a:c5:37:04:a7:71:f8:80:f7:9f:03:b0:
         2c:e0:03:27:ff:12:a2:dd:ae:0f:bd:80:de:ff:2d:b1:95:ac:
         ae:89:8d:df:6f:0b:78:d7:c2:cd:3d:26:41:39:28:16:f9:c7:
         75:b3:6f:f6:01:ad:88:88:0b:0c:6a:b8:f0:95:09:44:34:4e:
         35:36:20:2c:0f:b4:d0:67:43:6f:c5:53:1d:fc:dd:b5:88:73:
         69:0e:a9:8c:55:b7:30:ec:de:5f:46:1e:ac:58:16:eb:f2:5c:
         3b:21:9b:d7:0c:54:78:97:86:4f:30:ea:88:d1:17:83:58:47:
         ef:21:62:33:5a:76:b3:f5:61:4a:29:86:65:33:6b:f2:89:07:
         cd:23:d3:65:bb:80:54:3c:88:43:9b:4b:2c:d3:1d:eb:08:6d:
         77:69:78:eb:b5:dc:c7:da:1a:87:42:8a:78:01:87:94:3d:e9:
         a8:07:a9:6c:78:05:5f:da:bf:91:87:70:62:93:45:e0:04:31:
         71:f5:11:9b
-----BEGIN CERTIFICATE-----
MIIDTzCCAjegAwIBAgIQMxED26bY8z2W7DBY4OGqQDANBgkqhkiG9w0BAQsFADAT
MREwDwYDVQQDDAhDaGFuZ2VNZTAgFw0yMzAzMjkxMjU1MzdaGA8yMDUyMTAyMjEy
NTUzN1owEDEOMAwGA1UEAwwFdXNlcjYwggEiMA0GCSqGSIb3DQEBAQUAA4IBDwAw
ggEKAoIBAQC7kyosUd2c1pLgDGZIUe8qgSE4NGfsDBQ+oCtSzkf8j8xFw1MHBEB3
W2tSAT45cwJCbf1yDMVeKTnZf/ZGwn5BHfak8GkbwNeMbtNh2fdBv1FYL5ZmrHQY
kskaiTrkLwGIVsEgGJdWfBHMSVHGbckSeZsIgKkrVR2Izd5pcRzkbgmGvyH1Xwfh
sPsyGcrWdHgzT/Ej0sf7zb3I7TfoxTaiWr77ju8lNNLmx996v2XGqOHNgbGBzAxC
44O9cglyenKgvslpcAL9ONUV2VyAU6wF4S7hAkTucEORXk6GFqxCxdmB0Pz6mYig
nYWvTqSU4velYMEHRZl+BfrkjjuFOahjAgMBAAGjgZ8wgZwwCQYDVR0TBAIwADAd
BgNVHQ4EFgQUWfTM4qQn8kxRTSVRMkkz2aLR6sQwTgYDVR0jBEcwRYAUW1+VjWCM
30xz/Xya8GDCLemBhDKhF6QVMBMxETAPBgNVBAMMCENoYW5nZU1lghQO0cgBec+O
TVUNsj+LtQCMBmkUfTATBgNVHSUEDDAKBggrBgEFBQcDAjALBgNVHQ8EBAMCB4Aw
DQYJKoZIhvcNAQELBQADggEBACilAfCqUqRPCvcQtrwXQA0EKyjxzijfnsqUtXdn
avnIOsiF0gIcGiOdIvHxe0MiULzBVdhfepCNk6qACJrFNwSncfiA958DsCzgAyf/
EqLdrg+9gN7/LbGVrK6Jjd9vC3jXws09JkE5KBb5x3Wzb/YBrYiICwxquPCVCUQ0
TjU2ICwPtNBnQ2/FUx383bWIc2kOqYxVtzDs3l9GHqxYFuvyXDshm9cMVHiXhk8w
6ojRF4NYR+8hYjNadrP1YUophmUza/KJB80j02W7gFQ8iEObSyzTHesIbXdpeOu1
3MfaGodCingBh5Q96agHqWx4BV/av5GHcGKTReAEMXH1EZs=
-----END CERTIFICATE-----
