Certificate:
    Data:
        Version: 3 (0x2)
        Serial Number:
            a4:4e:91:39:7b:32:32:bc:03:1b:13:60:f4:1e:56:8c
        Signature Algorithm: sha256WithRSAEncryption
        Issuer: CN=ChangeMe
        Validity
            Not Before: Mar 29 13:51:26 2023 GMT
            Not After : Oct 22 13:51:26 2052 GMT
        Subject: CN=user2
        Subject Public Key Info:
            Public Key Algorithm: rsaEncryption
                RSA Public-Key: (2048 bit)
                Modulus:
                    00:b7:d7:07:d0:6d:2e:d6:61:3b:41:01:66:b5:34:
                    18:7a:6d:97:24:81:e7:4e:61:e1:47:29:c7:26:89:
                    f5:e9:a1:d9:76:a7:23:cf:ff:0b:f1:5b:9e:9b:0e:
                    08:72:45:3e:85:cd:3e:8b:80:69:97:33:ed:e8:bf:
                    05:ca:ef:d2:64:8e:a1:bf:9e:9d:15:f5:8d:c2:8b:
                    36:db:e8:1a:78:4a:ea:2d:4b:57:dc:65:0c:d3:9f:
                    0d:0a:fe:f8:bc:49:8e:8f:df:aa:24:c6:2b:ad:68:
                    36:f9:d8:48:3e:cf:b1:41:79:5c:e6:8f:72:e8:c7:
                    09:06:57:46:4d:30:c1:13:02:08:24:90:cf:82:fc:
                    39:17:96:9b:3d:6f:cd:f6:07:69:69:28:c6:69:58:
                    8c:cb:6d:52:8a:75:b9:b2:94:8a:9e:b4:da:2a:d7:
                    7b:99:10:9f:bc:c2:30:ff:5c:bf:bf:4e:7f:c4:f9:
                    d9:51:0b:e7:5c:68:d2:e4:39:33:b4:4c:99:10:6e:
                    af:06:28:84:cc:99:e2:8b:f7:44:13:8c:2d:92:4e:
                    64:bb:ac:e3:de:63:10:47:27:21:06:00:d9:ca:18:
                    4d:fc:53:4d:0c:a0:00:49:d3:af:35:10:84:ef:59:
                    95:57:3c:a1:aa:0f:d7:14:1f:ec:7d:73:94:95:29:
                    a3:1f
                Exponent: 65537 (0x10001)
        X509v3 extensions:
            X509v3 Basic Constraints: 
                CA:FALSE
            X509v3 Subject Key Identifier: 
                4A:0F:33:17:47:B6:D3:85:FF:00:CA:0B:52:21:CA:25:6B:DF:B5:BB
            X509v3 Authority Key Identifier: 
                keyid:C5:A9:69:17:7A:44:5E:50:EA:3E:16:C7:52:41:B5:E0:70:22:BF:B7
                DirName:/CN=ChangeMe
                serial:59:F7:CC:55:52:58:4E:A0:E0:33:4C:1C:63:C6:64:01:9D:55:77:FC

            X509v3 Extended Key Usage: 
                TLS Web Client Authentication
            X509v3 Key Usage: 
                Digital Signature
    Signature Algorithm: sha256WithRSAEncryption
         9d:3d:0f:4b:e1:aa:f0:84:33:0b:cb:4e:30:df:b6:64:d0:f7:
         c3:05:d6:06:38:cd:e4:68:e9:6d:cf:82:d7:ea:0c:8d:38:1f:
         4c:71:d6:da:2a:53:80:7e:12:6f:ec:ce:f0:13:2c:86:9e:d9:
         8a:bd:55:ee:b0:6d:39:4b:23:7a:26:39:a0:3b:81:2f:ef:e9:
         c3:73:f2:4e:9f:3f:e9:f0:b6:28:29:ca:81:a8:fa:14:58:b7:
         23:83:e2:12:6c:cf:de:ac:f7:b4:40:f9:6f:f9:9f:21:fe:f6:
         5d:1b:8b:f7:e8:56:37:49:1c:e4:9c:f2:d3:82:fc:e1:61:92:
         89:3c:a2:76:60:23:aa:a9:32:9a:46:b7:6d:dd:d8:93:dd:5a:
         d6:84:75:74:d9:b4:3b:c4:ca:3a:51:d6:bc:2d:c8:4e:d1:cc:
         c2:76:7d:ea:92:8e:2a:ea:39:7d:07:a3:39:bf:36:22:62:64:
         98:56:27:4b:af:a3:40:24:87:84:10:9d:a2:da:99:6c:4e:ef:
         58:0e:b9:d5:3d:d9:40:4a:4f:2b:03:ac:11:77:da:98:9e:bd:
         e9:c0:1a:32:e0:17:d5:a8:08:a2:82:10:ef:db:d4:da:a2:04:
         0a:ac:46:50:99:f6:8e:29:db:98:43:a9:61:3f:7f:08:04:7c:
         38:c7:6d:ad
-----BEGIN CERTIFICATE-----
MIIDUDCCAjigAwIBAgIRAKROkTl7MjK8AxsTYPQeVowwDQYJKoZIhvcNAQELBQAw
EzERMA8GA1UEAwwIQ2hhbmdlTWUwIBcNMjMwMzI5MTM1MTI2WhgPMjA1MjEwMjIx
MzUxMjZaMBAxDjAMBgNVBAMMBXVzZXIyMIIBIjANBgkqhkiG9w0BAQEFAAOCAQ8A
MIIBCgKCAQEAt9cH0G0u1mE7QQFmtTQYem2XJIHnTmHhRynHJon16aHZdqcjz/8L
8Vuemw4IckU+hc0+i4BplzPt6L8Fyu/SZI6hv56dFfWNwos22+gaeErqLUtX3GUM
058NCv74vEmOj9+qJMYrrWg2+dhIPs+xQXlc5o9y6McJBldGTTDBEwIIJJDPgvw5
F5abPW/N9gdpaSjGaViMy21SinW5spSKnrTaKtd7mRCfvMIw/1y/v05/xPnZUQvn
XGjS5DkztEyZEG6vBiiEzJnii/dEE4wtkk5ku6zj3mMQRychBgDZyhhN/FNNDKAA
SdOvNRCE71mVVzyhqg/XFB/sfXOUlSmjHwIDAQABo4GfMIGcMAkGA1UdEwQCMAAw
HQYDVR0OBBYEFEoPMxdHttOF/wDKC1IhyiVr37W7ME4GA1UdIwRHMEWAFMWpaRd6
RF5Q6j4Wx1JBteBwIr+3oRekFTATMREwDwYDVQQDDAhDaGFuZ2VNZYIUWffMVVJY
TqDgM0wcY8ZkAZ1Vd/wwEwYDVR0lBAwwCgYIKwYBBQUHAwIwCwYDVR0PBAQDAgeA
MA0GCSqGSIb3DQEBCwUAA4IBAQCdPQ9L4arwhDMLy04w37Zk0PfDBdYGOM3kaOlt
z4LX6gyNOB9McdbaKlOAfhJv7M7wEyyGntmKvVXusG05SyN6JjmgO4Ev7+nDc/JO
nz/p8LYoKcqBqPoUWLcjg+ISbM/erPe0QPlv+Z8h/vZdG4v36FY3SRzknPLTgvzh
YZKJPKJ2YCOqqTKaRrdt3diT3VrWhHV02bQ7xMo6Uda8LchO0czCdn3qko4q6jl9
B6M5vzYiYmSYVidLr6NAJIeEEJ2i2plsTu9YDrnVPdlASk8rA6wRd9qYnr3pwBoy
4BfVqAiighDv29TaogQKrEZQmfaOKduYQ6lhP38IBHw4x22t
-----END CERTIFICATE-----
