Certificate:
    Data:
        Version: 3 (0x2)
        Serial Number:
            b5:ca:b8:58:66:87:30:17:5f:74:41:38:8d:32:b4:fe
        Signature Algorithm: sha256WithRSAEncryption
        Issuer: CN=ChangeMe
        Validity
            Not Before: Mar 29 13:51:25 2023 GMT
            Not After : Oct 22 13:51:25 2052 GMT
        Subject: CN=user1
        Subject Public Key Info:
            Public Key Algorithm: rsaEncryption
                RSA Public-Key: (2048 bit)
                Modulus:
                    00:d8:eb:3b:a2:64:5c:da:0e:8d:b3:77:e7:6d:71:
                    3c:89:40:c7:04:54:ed:b6:88:da:d5:13:b3:3f:59:
                    be:57:a4:99:16:3b:af:e9:2b:25:02:3f:6d:86:bc:
                    2e:79:8b:32:1b:1a:51:c0:e8:3a:2a:6d:18:f0:1e:
                    eb:1c:ed:c7:e6:1f:e1:79:e2:c0:84:fd:57:53:d7:
                    83:88:36:85:3f:09:64:2c:7e:52:ee:2a:e2:a6:ae:
                    b9:4f:57:a8:3f:45:8a:5a:6d:59:63:25:f6:65:f9:
                    ab:a9:ff:84:85:7e:1e:80:04:0d:df:cc:ec:96:5c:
                    bd:ce:c8:e1:1d:23:f4:13:a7:31:19:af:f3:b6:93:
                    a7:92:e0:ad:38:bd:bc:ef:1f:56:64:58:8f:45:2b:
                    72:69:df:54:48:d5:e4:8c:4b:96:f0:00:24:41:3a:
                    2c:4e:27:42:a9:a8:8e:c3:ee:66:65:77:6d:72:2d:
                    ad:26:8a:2a:fe:0c:cb:78:f8:12:1b:e3:61:f0:71:
                    1e:44:e3:bc:c2:66:76:c3:df:d6:77:ac:3f:c4:e0:
                    36:f8:53:11:18:e7:bf:23:e7:30:02:4f:90:c4:f1:
                    4b:1c:fd:f6:79:75:3e:fc:ef:76:07:fb:d9:1a:09:
                    f6:aa:e7:ea:82:53:2e:b5:89:bc:d4:29:7a:0a:f3:
                    94:65
                Exponent: 65537 (0x10001)
        X509v3 extensions:
            X509v3 Basic Constraints: 
                CA:FALSE
            X509v3 Subject Key Identifier: 
                35:FA:A2:A1:07:04:AC:7F:34:4F:F1:77:B2:BD:75:91:F1:0B:44:B5
            X509v3 Authority Key Identifier: 
                keyid:C5:A9:69:17:7A:44:5E:50:EA:3E:16:C7:52:41:B5:E0:70:22:BF:B7
                DirName:/CN=ChangeMe
                serial:59:F7:CC:55:52:58:4E:A0:E0:33:4C:1C:63:C6:64:01:9D:55:77:FC

            X509v3 Extended Key Usage: 
                TLS Web Client Authentication
            X509v3 Key Usage: 
                Digital Signature
    Signature Algorithm: sha256WithRSAEncryption
         4c:98:b9:d4:aa:44:0e:6f:11:50:83:0c:d3:db:0a:6d:1e:8e:
         65:b1:31:ea:4d:ec:c7:2d:85:30:e9:58:34:79:1e:2f:3e:df:
         2a:f0:00:a4:ab:76:4c:62:f6:70:fe:44:ca:49:b4:ba:ca:7b:
         f2:90:3e:93:ca:c1:54:7e:22:ca:90:3e:11:4a:ce:42:e1:99:
         9d:41:38:fd:92:b8:81:58:c3:72:c5:27:9f:88:af:7b:53:c7:
         e5:9b:c5:40:9b:f1:a6:eb:b7:50:0c:a3:77:cb:c4:8b:ac:c2:
         f1:df:fc:c8:d2:ae:15:97:36:94:65:02:81:30:43:00:7a:2f:
         96:b0:6b:08:1a:4f:63:41:d8:fd:58:c5:19:51:6a:ea:a5:c7:
         8d:21:b4:84:f7:9f:0a:e0:fb:31:d9:67:7c:ed:b5:45:86:3f:
         89:42:c9:5f:4a:08:99:e2:c9:3f:d0:d1:3a:3c:35:79:86:b5:
         58:6e:25:1e:55:1f:8e:72:2b:cd:9b:05:59:af:e8:d3:d1:f1:
         71:39:fb:59:d4:ad:a4:64:ad:f2:69:a9:65:1d:f3:45:3b:b3:
         37:8e:09:04:f0:9b:5b:e9:fd:bb:f0:74:13:f0:b2:c4:89:0e:
         63:7f:f6:59:56:1c:54:12:53:19:eb:25:60:8a:9d:08:84:12:
         f3:1f:e9:05
-----BEGIN CERTIFICATE-----
MIIDUDCCAjigAwIBAgIRALXKuFhmhzAXX3RBOI0ytP4wDQYJKoZIhvcNAQELBQAw
EzERMA8GA1UEAwwIQ2hhbmdlTWUwIBcNMjMwMzI5MTM1MTI1WhgPMjA1MjEwMjIx
MzUxMjVaMBAxDjAMBgNVBAMMBXVzZXIxMIIBIjANBgkqhkiG9w0BAQEFAAOCAQ8A
MIIBCgKCAQEA2Os7omRc2g6Ns3fnbXE8iUDHBFTttoja1ROzP1m+V6SZFjuv6Ssl
Aj9thrwueYsyGxpRwOg6Km0Y8B7rHO3H5h/heeLAhP1XU9eDiDaFPwlkLH5S7iri
pq65T1eoP0WKWm1ZYyX2Zfmrqf+EhX4egAQN38zslly9zsjhHSP0E6cxGa/ztpOn
kuCtOL287x9WZFiPRStyad9USNXkjEuW8AAkQTosTidCqaiOw+5mZXdtci2tJooq
/gzLePgSG+Nh8HEeROO8wmZ2w9/Wd6w/xOA2+FMRGOe/I+cwAk+QxPFLHP32eXU+
/O92B/vZGgn2qufqglMutYm81Cl6CvOUZQIDAQABo4GfMIGcMAkGA1UdEwQCMAAw
HQYDVR0OBBYEFDX6oqEHBKx/NE/xd7K9dZHxC0S1ME4GA1UdIwRHMEWAFMWpaRd6
RF5Q6j4Wx1JBteBwIr+3oRekFTATMREwDwYDVQQDDAhDaGFuZ2VNZYIUWffMVVJY
TqDgM0wcY8ZkAZ1Vd/wwEwYDVR0lBAwwCgYIKwYBBQUHAwIwCwYDVR0PBAQDAgeA
MA0GCSqGSIb3DQEBCwUAA4IBAQBMmLnUqkQObxFQgwzT2wptHo5lsTHqTezHLYUw
6Vg0eR4vPt8q8ACkq3ZMYvZw/kTKSbS6ynvykD6TysFUfiLKkD4RSs5C4ZmdQTj9
kriBWMNyxSefiK97U8flm8VAm/Gm67dQDKN3y8SLrMLx3/zI0q4VlzaUZQKBMEMA
ei+WsGsIGk9jQdj9WMUZUWrqpceNIbSE958K4Psx2Wd87bVFhj+JQslfSgiZ4sk/
0NE6PDV5hrVYbiUeVR+OcivNmwVZr+jT0fFxOftZ1K2kZK3yaallHfNFO7M3jgkE
8Jtb6f278HQT8LLEiQ5jf/ZZVhxUElMZ6yVgip0IhBLzH+kF
-----END CERTIFICATE-----
