Certificate:
    Data:
        Version: 3 (0x2)
        Serial Number:
            3d:c9:1d:b8:4b:da:5f:bd:1c:48:5e:6f:c4:b8:94:62
        Signature Algorithm: sha256WithRSAEncryption
        Issuer: CN=ChangeMe
        Validity
            Not Before: Mar 29 13:51:28 2023 GMT
            Not After : Oct 22 13:51:28 2052 GMT
        Subject: CN=user3
        Subject Public Key Info:
            Public Key Algorithm: rsaEncryption
                RSA Public-Key: (2048 bit)
                Modulus:
                    00:a9:c6:1d:ed:31:78:06:39:60:b1:85:31:a4:66:
                    75:2c:83:c7:be:22:52:b2:5f:aa:bc:72:cc:1e:da:
                    46:b7:a0:e7:3f:88:55:49:f3:50:07:18:9a:ce:76:
                    d4:9d:c5:8d:32:e5:bc:2f:7e:37:76:52:12:93:67:
                    94:d8:31:f9:3a:96:8b:79:82:2e:0b:06:4d:60:74:
                    30:42:0f:a0:5a:76:35:3d:88:be:b4:95:bf:d1:db:
                    f4:7e:bc:04:ca:1d:7f:20:61:68:89:b3:63:c8:94:
                    46:4d:ab:e6:6c:50:8e:13:7a:83:8a:c3:48:86:db:
                    22:ff:37:f9:08:fc:25:c9:85:3d:7d:fc:45:14:6f:
                    00:ab:30:f3:5c:5c:78:e5:a5:42:47:38:f7:a6:75:
                    1f:5f:31:27:22:d0:08:8b:35:1a:10:42:3c:b7:59:
                    7d:b3:20:b3:1e:36:cc:e3:9c:41:42:75:72:b7:2e:
                    d6:09:06:6d:19:20:35:2f:b4:7c:a4:ac:4d:e2:6a:
                    82:22:2a:5f:3d:b0:08:c0:91:c2:25:6a:b4:42:90:
                    35:3a:72:83:ee:e6:67:bc:c5:4d:bf:12:ae:c9:ac:
                    78:f1:1f:63:a0:44:78:2c:f6:68:69:1d:5f:4c:5f:
                    e3:86:74:6e:a5:2f:52:41:d2:2d:ac:3f:ee:21:39:
                    c3:47
                Exponent: 65537 (0x10001)
        X509v3 extensions:
            X509v3 Basic Constraints: 
                CA:FALSE
            X509v3 Subject Key Identifier: 
                A6:30:46:6B:C5:B2:BE:76:C2:09:20:1D:13:53:E9:11:33:F9:02:4C
            X509v3 Authority Key Identifier: 
                keyid:C5:A9:69:17:7A:44:5E:50:EA:3E:16:C7:52:41:B5:E0:70:22:BF:B7
                DirName:/CN=ChangeMe
                serial:59:F7:CC:55:52:58:4E:A0:E0:33:4C:1C:63:C6:64:01:9D:55:77:FC

            X509v3 Extended Key Usage: 
                TLS Web Client Authentication
            X509v3 Key Usage: 
                Digital Signature
    Signature Algorithm: sha256WithRSAEncryption
         04:46:18:57:f9:c1:7b:95:b7:1a:a1:82:ac:04:00:3f:2e:d8:
         f3:3c:1e:a5:a9:2f:71:da:53:8d:0b:92:c0:95:35:6a:eb:7a:
         70:f1:64:fd:02:62:5a:29:6c:41:2c:05:db:b6:18:c4:31:a3:
         db:2c:23:2e:c1:4a:1f:20:51:66:c0:64:7f:e5:30:77:a1:be:
         d8:59:05:17:03:62:34:22:e1:ba:4f:28:df:ae:4d:39:48:41:
         7b:62:73:62:0d:3e:15:da:c4:25:3e:69:12:04:33:78:d7:94:
         1c:a5:72:bf:fa:f7:11:85:bf:c6:53:20:24:c4:42:9a:a7:02:
         98:67:5f:c1:52:5a:b2:30:2a:f7:8c:3e:2f:21:87:1b:55:f6:
         0f:f8:61:60:1a:88:90:87:3e:e1:48:6a:93:35:15:42:ef:15:
         a4:f2:0b:a4:55:30:3c:4c:d0:9c:94:ec:7d:b6:c6:9e:1d:e0:
         3e:74:af:49:5b:5c:78:02:bb:09:26:3f:a4:ca:c5:09:dd:44:
         fa:14:f8:25:0f:3b:01:c7:10:d7:f8:5a:48:58:73:cf:67:d1:
         a2:2c:d5:c3:27:71:f1:3c:77:9e:7f:d2:5d:0a:09:43:b6:e1:
         28:1f:d4:95:5e:4d:d7:5d:92:b8:b7:ff:d4:51:57:21:f4:58:
         58:80:cc:d2
-----BEGIN CERTIFICATE-----
MIIDTzCCAjegAwIBAgIQPckduEvaX70cSF5vxLiUYjANBgkqhkiG9w0BAQsFADAT
MREwDwYDVQQDDAhDaGFuZ2VNZTAgFw0yMzAzMjkxMzUxMjhaGA8yMDUyMTAyMjEz
NTEyOFowEDEOMAwGA1UEAwwFdXNlcjMwggEiMA0GCSqGSIb3DQEBAQUAA4IBDwAw
ggEKAoIBAQCpxh3tMXgGOWCxhTGkZnUsg8e+IlKyX6q8cswe2ka3oOc/iFVJ81AH
GJrOdtSdxY0y5bwvfjd2UhKTZ5TYMfk6lot5gi4LBk1gdDBCD6BadjU9iL60lb/R
2/R+vATKHX8gYWiJs2PIlEZNq+ZsUI4TeoOKw0iG2yL/N/kI/CXJhT19/EUUbwCr
MPNcXHjlpUJHOPemdR9fMSci0AiLNRoQQjy3WX2zILMeNszjnEFCdXK3LtYJBm0Z
IDUvtHykrE3iaoIiKl89sAjAkcIlarRCkDU6coPu5me8xU2/Eq7JrHjxH2OgRHgs
9mhpHV9MX+OGdG6lL1JB0i2sP+4hOcNHAgMBAAGjgZ8wgZwwCQYDVR0TBAIwADAd
BgNVHQ4EFgQUpjBGa8WyvnbCCSAdE1PpETP5AkwwTgYDVR0jBEcwRYAUxalpF3pE
XlDqPhbHUkG14HAiv7ehF6QVMBMxETAPBgNVBAMMCENoYW5nZU1lghRZ98xVUlhO
oOAzTBxjxmQBnVV3/DATBgNVHSUEDDAKBggrBgEFBQcDAjALBgNVHQ8EBAMCB4Aw
DQYJKoZIhvcNAQELBQADggEBAARGGFf5wXuVtxqhgqwEAD8u2PM8HqWpL3HaU40L
ksCVNWrrenDxZP0CYlopbEEsBdu2GMQxo9ssIy7BSh8gUWbAZH/lMHehvthZBRcD
YjQi4bpPKN+uTTlIQXtic2INPhXaxCU+aRIEM3jXlBylcr/69xGFv8ZTICTEQpqn
AphnX8FSWrIwKveMPi8hhxtV9g/4YWAaiJCHPuFIapM1FULvFaTyC6RVMDxM0JyU
7H22xp4d4D50r0lbXHgCuwkmP6TKxQndRPoU+CUPOwHHENf4WkhYc89n0aIs1cMn
cfE8d55/0l0KCUO24Sgf1JVeTdddkri3/9RRVyH0WFiAzNI=
-----END CERTIFICATE-----
