Certificate:
    Data:
        Version: 3 (0x2)
        Serial Number:
            bf:9a:e7:b6:c1:44:32:6f:75:d0:b3:30:3d:16:8e:fe
        Signature Algorithm: sha256WithRSAEncryption
        Issuer: CN=ChangeMe
        Validity
            Not Before: Mar 29 13:51:32 2023 GMT
            Not After : Oct 22 13:51:32 2052 GMT
        Subject: CN=user7
        Subject Public Key Info:
            Public Key Algorithm: rsaEncryption
                RSA Public-Key: (2048 bit)
                Modulus:
                    00:bd:02:a7:4b:0e:e1:48:17:42:35:c1:9f:49:35:
                    7d:cc:43:8e:24:c5:fd:a2:85:e2:5c:1b:95:f8:66:
                    cd:62:c1:8a:9c:ac:0d:f4:c8:63:e4:75:c4:c0:99:
                    c3:9c:17:79:da:32:28:31:a0:a1:c6:36:cf:4d:70:
                    d0:bf:1b:dd:7a:75:29:03:47:f9:9c:63:b0:55:83:
                    4b:cc:fc:c9:73:f9:3a:f3:a4:44:b8:71:db:2a:b0:
                    cf:ec:62:9a:6f:81:f5:c9:eb:a2:b2:4b:f1:e9:dc:
                    fb:ff:46:6d:f1:e5:5a:3f:df:0c:af:ee:66:0f:3e:
                    1b:27:fe:d6:26:ee:37:77:ef:94:2a:48:68:69:f7:
                    96:c0:ec:7a:f0:2c:33:eb:5b:52:79:11:be:9e:73:
                    81:45:af:93:d8:72:db:a7:91:9a:52:9d:d9:02:2a:
                    0f:3b:30:52:11:fb:41:5e:74:57:c1:22:4b:29:9d:
                    3f:da:42:7d:39:77:9c:da:da:c8:6b:3c:a2:34:2d:
                    44:91:d7:a9:91:46:1e:1b:fa:81:d3:ae:03:25:19:
                    9a:32:2a:76:bc:b1:04:e8:ef:2e:2b:4e:bc:19:84:
                    85:aa:b0:82:f6:13:9a:98:1b:50:0a:93:85:a3:1f:
                    5d:d2:3d:04:7a:ee:5f:0d:ae:7a:5b:e9:f2:e0:f4:
                    19:e5
                Exponent: 65537 (0x10001)
        X509v3 extensions:
            X509v3 Basic Constraints: 
                CA:FALSE
            X509v3 Subject Key Identifier: 
                42:DC:55:F9:D4:44:B1:CB:7A:73:CA:20:74:F1:85:1E:9D:09:7E:9D
            X509v3 Authority Key Identifier: 
                keyid:C5:A9:69:17:7A:44:5E:50:EA:3E:16:C7:52:41:B5:E0:70:22:BF:B7
                DirName:/CN=ChangeMe
                serial:59:F7:CC:55:52:58:4E:A0:E0:33:4C:1C:63:C6:64:01:9D:55:77:FC

            X509v3 Extended Key Usage: 
                TLS Web Client Authentication
            X509v3 Key Usage: 
                Digital Signature
    Signature Algorithm: sha256WithRSAEncryption
         13:e8:85:a2:7c:88:d4:af:ad:6e:43:0c:18:70:f1:52:20:cf:
         d2:32:2c:4b:14:b1:6d:87:f6:3c:80:60:a8:a1:ad:cc:05:5d:
         d7:f6:d9:75:4f:66:56:00:26:ad:fe:78:e4:d9:0f:85:36:06:
         de:b4:df:fe:3a:f5:fd:39:da:5f:9e:06:1e:9c:88:45:f2:41:
         e6:6f:76:5b:0f:47:1f:df:1c:83:30:85:e6:99:a5:fd:a3:58:
         d0:d7:a6:86:03:4c:72:e6:e6:70:d0:55:17:b3:83:57:a1:8c:
         a6:57:1a:d0:2e:ca:dd:e1:f6:51:93:7a:8d:ec:85:40:a9:8a:
         ca:5e:7b:e1:2f:d1:82:18:ef:21:0a:33:62:e1:3a:cc:2f:2e:
         7a:82:c3:6b:65:13:e3:2f:9a:2a:d2:61:27:78:7f:02:e0:72:
         3f:ff:6d:fc:8b:ec:9b:21:5d:f8:ca:9b:99:a6:ac:4e:f9:5d:
         72:d1:2b:53:57:66:a9:fe:45:dc:d2:83:69:3e:07:3d:e8:dd:
         5f:62:6b:6d:80:6c:2b:75:af:51:ef:62:aa:54:15:dd:eb:4e:
         e3:ab:8f:a0:06:6a:1e:b1:33:b6:fd:dd:88:1b:5c:77:44:88:
         7e:97:7a:29:4e:69:8d:26:7e:64:e7:bf:38:a6:bd:a1:a3:08:
         c2:b1:e2:df
-----BEGIN CERTIFICATE-----
MIIDUDCCAjigAwIBAgIRAL+a57bBRDJvddCzMD0Wjv4wDQYJKoZIhvcNAQELBQAw
EzERMA8GA1UEAwwIQ2hhbmdlTWUwIBcNMjMwMzI5MTM1MTMyWhgPMjA1MjEwMjIx
MzUxMzJaMBAxDjAMBgNVBAMMBXVzZXI3MIIBIjANBgkqhkiG9w0BAQEFAAOCAQ8A
MIIBCgKCAQEAvQKnSw7hSBdCNcGfSTV9zEOOJMX9ooXiXBuV+GbNYsGKnKwN9Mhj
5HXEwJnDnBd52jIoMaChxjbPTXDQvxvdenUpA0f5nGOwVYNLzPzJc/k686REuHHb
KrDP7GKab4H1yeuiskvx6dz7/0Zt8eVaP98Mr+5mDz4bJ/7WJu43d++UKkhoafeW
wOx68Cwz61tSeRG+nnOBRa+T2HLbp5GaUp3ZAioPOzBSEftBXnRXwSJLKZ0/2kJ9
OXec2trIazyiNC1EkdepkUYeG/qB064DJRmaMip2vLEE6O8uK068GYSFqrCC9hOa
mBtQCpOFox9d0j0Eeu5fDa56W+ny4PQZ5QIDAQABo4GfMIGcMAkGA1UdEwQCMAAw
HQYDVR0OBBYEFELcVfnURLHLenPKIHTxhR6dCX6dME4GA1UdIwRHMEWAFMWpaRd6
RF5Q6j4Wx1JBteBwIr+3oRekFTATMREwDwYDVQQDDAhDaGFuZ2VNZYIUWffMVVJY
TqDgM0wcY8ZkAZ1Vd/wwEwYDVR0lBAwwCgYIKwYBBQUHAwIwCwYDVR0PBAQDAgeA
MA0GCSqGSIb3DQEBCwUAA4IBAQAT6IWifIjUr61uQwwYcPFSIM/SMixLFLFth/Y8
gGCooa3MBV3X9tl1T2ZWACat/njk2Q+FNgbetN/+OvX9OdpfngYenIhF8kHmb3Zb
D0cf3xyDMIXmmaX9o1jQ16aGA0xy5uZw0FUXs4NXoYymVxrQLsrd4fZRk3qN7IVA
qYrKXnvhL9GCGO8hCjNi4TrMLy56gsNrZRPjL5oq0mEneH8C4HI//238i+ybIV34
ypuZpqxO+V1y0StTV2ap/kXc0oNpPgc96N1fYmttgGwrda9R72KqVBXd607jq4+g
BmoesTO2/d2IG1x3RIh+l3opTmmNJn5k5784pr2howjCseLf
-----END CERTIFICATE-----
