Certificate:
    Data:
        Version: 3 (0x2)
        Serial Number:
            f9:e5:0c:df:84:20:8d:f7:f9:a3:d0:ff:7a:cd:66:fd
        Signature Algorithm: sha256WithRSAEncryption
        Issuer: CN=ChangeMe
        Validity
            Not Before: Mar 29 13:51:35 2023 GMT
            Not After : Oct 22 13:51:35 2052 GMT
        Subject: CN=user9
        Subject Public Key Info:
            Public Key Algorithm: rsaEncryption
                RSA Public-Key: (2048 bit)
                Modulus:
                    00:d9:47:2f:db:80:b7:45:23:cb:cc:b6:c4:b6:69:
                    56:03:2d:51:33:9d:36:9c:fa:af:c7:91:ee:9a:f3:
                    48:cd:59:ae:8c:b4:0d:96:0a:ab:f3:1a:1b:28:c6:
                    bc:a2:9c:ae:29:2f:e9:3b:f9:20:2f:e5:15:13:a3:
                    dc:53:11:c8:80:db:ed:ac:1d:00:bb:a6:ab:3f:73:
                    cd:67:eb:66:70:6d:b1:5f:88:f3:70:70:aa:c8:0b:
                    ee:15:b8:df:4b:50:1c:e2:44:22:09:94:24:56:ab:
                    42:e8:60:af:1d:b3:55:b0:b3:d2:c2:f4:fb:65:6d:
                    af:f6:65:8a:f1:86:09:8c:e7:7d:34:9d:f0:ff:78:
                    00:ea:02:8c:db:7c:59:03:72:8b:58:e6:fb:ef:b0:
                    90:ca:26:81:af:49:f7:d5:14:a9:ac:8a:80:01:c4:
                    3b:25:18:4c:2f:71:a9:a4:62:34:84:98:62:1a:28:
                    ac:2c:3d:9e:20:dc:56:87:61:7f:18:ce:e2:5d:14:
                    60:08:3a:f5:6b:ac:e9:8f:d4:97:22:56:8a:b9:08:
                    d5:fa:45:ce:81:63:59:f1:02:c1:88:c7:d9:7f:50:
                    5e:4d:ab:fb:15:f3:2a:d3:30:31:3b:87:c1:ea:f3:
                    d6:39:17:27:f7:d7:d6:71:9c:f0:e5:b1:e6:94:3c:
                    df:79
                Exponent: 65537 (0x10001)
        X509v3 extensions:
            X509v3 Basic Constraints: 
                CA:FALSE
            X509v3 Subject Key Identifier: 
                96:DB:7C:E8:B9:09:DC:60:CE:E2:02:A9:C6:2F:DA:09:3B:55:51:1D
            X509v3 Authority Key Identifier: 
                keyid:C5:A9:69:17:7A:44:5E:50:EA:3E:16:C7:52:41:B5:E0:70:22:BF:B7
                DirName:/CN=ChangeMe
                serial:59:F7:CC:55:52:58:4E:A0:E0:33:4C:1C:63:C6:64:01:9D:55:77:FC

            X509v3 Extended Key Usage: 
                TLS Web Client Authentication
            X509v3 Key Usage: 
                Digital Signature
    Signature Algorithm: sha256WithRSAEncryption
         5b:99:6c:f8:c7:16:0b:d3:da:81:9e:58:c3:5c:03:5f:ce:df:
         68:61:69:44:6b:13:73:7a:e9:5f:71:5e:c5:5a:da:32:f7:b4:
         70:28:c4:0c:4b:85:f2:76:16:30:ea:a9:df:98:ee:cc:eb:b5:
         c7:43:d1:0a:db:b4:fa:73:8b:34:40:c3:76:59:36:ee:18:95:
         df:88:36:62:da:50:7a:9c:a6:c8:b5:01:90:6e:3a:bf:69:a3:
         21:da:dc:dc:8d:f9:7c:43:c8:05:95:3e:8d:60:6c:07:f0:c2:
         e6:21:0a:d5:14:94:64:29:34:30:29:41:80:6d:d7:98:82:89:
         29:92:42:7a:7b:d4:88:23:b7:5d:ad:de:a5:b8:4e:2f:f8:98:
         dc:5d:30:aa:b3:c4:32:b1:f9:88:f9:38:92:2a:9d:fc:8f:d7:
         8d:c6:8c:9d:fb:97:87:69:ef:da:0d:26:08:87:20:7a:44:bd:
         65:cc:2a:8e:1d:b8:e7:1e:61:4d:7e:e6:c0:92:88:c1:27:44:
         ab:70:58:1e:43:fa:dc:fd:ef:95:5e:ec:36:fd:e6:cc:0e:5c:
         f3:c0:33:04:38:be:74:fb:81:7b:8c:fa:2e:8f:bc:19:d0:68:
         00:0b:d4:3a:c6:dd:1d:35:51:9a:a4:d6:40:8d:ce:a8:00:aa:
         af:78:78:6f
-----BEGIN CERTIFICATE-----
MIIDUDCCAjigAwIBAgIRAPnlDN+EII33+aPQ/3rNZv0wDQYJKoZIhvcNAQELBQAw
EzERMA8GA1UEAwwIQ2hhbmdlTWUwIBcNMjMwMzI5MTM1MTM1WhgPMjA1MjEwMjIx
MzUxMzVaMBAxDjAMBgNVBAMMBXVzZXI5MIIBIjANBgkqhkiG9w0BAQEFAAOCAQ8A
MIIBCgKCAQEA2Ucv24C3RSPLzLbEtmlWAy1RM502nPqvx5HumvNIzVmujLQNlgqr
8xobKMa8opyuKS/pO/kgL+UVE6PcUxHIgNvtrB0Au6arP3PNZ+tmcG2xX4jzcHCq
yAvuFbjfS1Ac4kQiCZQkVqtC6GCvHbNVsLPSwvT7ZW2v9mWK8YYJjOd9NJ3w/3gA
6gKM23xZA3KLWOb777CQyiaBr0n31RSprIqAAcQ7JRhML3GppGI0hJhiGiisLD2e
INxWh2F/GM7iXRRgCDr1a6zpj9SXIlaKuQjV+kXOgWNZ8QLBiMfZf1BeTav7FfMq
0zAxO4fB6vPWORcn99fWcZzw5bHmlDzfeQIDAQABo4GfMIGcMAkGA1UdEwQCMAAw
HQYDVR0OBBYEFJbbfOi5CdxgzuICqcYv2gk7VVEdME4GA1UdIwRHMEWAFMWpaRd6
RF5Q6j4Wx1JBteBwIr+3oRekFTATMREwDwYDVQQDDAhDaGFuZ2VNZYIUWffMVVJY
TqDgM0wcY8ZkAZ1Vd/wwEwYDVR0lBAwwCgYIKwYBBQUHAwIwCwYDVR0PBAQDAgeA
MA0GCSqGSIb3DQEBCwUAA4IBAQBbmWz4xxYL09qBnljDXANfzt9oYWlEaxNzeulf
cV7FWtoy97RwKMQMS4XydhYw6qnfmO7M67XHQ9EK27T6c4s0QMN2WTbuGJXfiDZi
2lB6nKbItQGQbjq/aaMh2tzcjfl8Q8gFlT6NYGwH8MLmIQrVFJRkKTQwKUGAbdeY
gokpkkJ6e9SII7ddrd6luE4v+JjcXTCqs8QysfmI+TiSKp38j9eNxoyd+5eHae/a
DSYIhyB6RL1lzCqOHbjnHmFNfubAkojBJ0SrcFgeQ/rc/e+VXuw2/ebMDlzzwDME
OL50+4F7jPouj7wZ0GgAC9Q6xt0dNVGapNZAjc6oAKqveHhv
-----END CERTIFICATE-----
