Certificate:
    Data:
        Version: 3 (0x2)
        Serial Number:
            12:24:a0:26:38:13:f8:b5:19:19:f7:be:5a:64:5b:e9
        Signature Algorithm: sha256WithRSAEncryption
        Issuer: CN=ChangeMe
        Validity
            Not Before: Mar 29 13:51:30 2023 GMT
            Not After : Oct 22 13:51:30 2052 GMT
        Subject: CN=user5
        Subject Public Key Info:
            Public Key Algorithm: rsaEncryption
                RSA Public-Key: (2048 bit)
                Modulus:
                    00:c1:4c:3e:00:d5:c4:2c:81:98:09:a1:5a:25:6d:
                    4f:e8:c2:60:9c:28:e2:b5:6c:5a:c9:2d:df:e7:74:
                    01:b7:e0:bf:9d:aa:87:ca:93:56:d0:0d:7c:47:de:
                    2b:12:db:52:9a:9b:97:c4:38:ad:7f:f3:43:09:71:
                    78:8e:39:a0:d7:87:0a:0f:c3:ec:bf:97:d8:1b:7c:
                    c3:be:f7:61:61:fc:6a:18:5e:a3:44:fa:0c:9c:22:
                    c1:e8:8c:86:c8:02:4f:6a:3c:9f:a4:c5:02:0e:4b:
                    d1:51:29:cc:cf:e2:5b:b9:58:55:68:65:da:c9:3c:
                    8e:1e:06:c6:b2:a9:ee:be:47:8c:a3:ad:54:4e:c6:
                    14:a8:7d:01:2d:c9:6a:e1:48:7c:8e:29:67:04:c5:
                    b9:ba:06:58:54:ce:44:95:1b:61:07:ed:a0:f0:9a:
                    47:90:fe:66:2c:74:d9:1a:f2:c6:b3:e7:ce:0c:50:
                    8c:e2:be:8e:6e:bd:4a:91:58:bb:60:20:62:c0:2d:
                    bc:6d:9b:6b:d6:a1:28:02:f5:52:8d:f8:76:1d:d9:
                    43:26:89:a3:90:3a:1e:dd:42:ca:9b:5b:17:80:92:
                    c4:3a:7f:2a:a2:85:31:28:8f:e7:78:08:7d:07:20:
                    35:fd:0f:3e:7b:43:da:af:f2:1d:9d:2b:06:61:32:
                    13:d1
                Exponent: 65537 (0x10001)
        X509v3 extensions:
            X509v3 Basic Constraints: 
                CA:FALSE
            X509v3 Subject Key Identifier: 
                DA:0C:09:E9:06:16:8B:C4:1E:52:B7:EC:9A:40:73:6F:00:70:05:6B
            X509v3 Authority Key Identifier: 
                keyid:C5:A9:69:17:7A:44:5E:50:EA:3E:16:C7:52:41:B5:E0:70:22:BF:B7
                DirName:/CN=ChangeMe
                serial:59:F7:CC:55:52:58:4E:A0:E0:33:4C:1C:63:C6:64:01:9D:55:77:FC

            X509v3 Extended Key Usage: 
                TLS Web Client Authentication
            X509v3 Key Usage: 
                Digital Signature
    Signature Algorithm: sha256WithRSAEncryption
         a6:48:c4:14:7f:83:fa:b0:c2:51:12:9e:9d:d6:61:79:4a:3a:
         72:33:9e:82:52:06:8a:26:db:3b:7e:e6:2d:42:cc:79:86:35:
         05:53:47:41:31:42:42:9e:50:77:d4:2b:a9:8c:c0:b4:6f:a4:
         b3:15:dc:92:9f:3c:85:8e:a0:ae:bb:40:0b:bc:a2:48:2a:7f:
         fe:00:e5:5e:5a:c1:1c:76:c9:7a:b0:d9:3f:e5:40:0a:3b:93:
         8d:30:77:4f:57:9c:7d:b9:68:62:58:f7:75:83:d7:67:18:98:
         cd:74:d5:e0:24:3c:9e:6a:0d:f3:71:17:67:52:5c:ff:4d:a0:
         06:38:8a:eb:5a:8e:f6:cd:66:02:5c:35:85:71:34:bd:90:50:
         16:ec:ad:dc:21:70:e7:db:f8:a5:74:aa:f5:46:32:57:41:1a:
         c9:62:35:24:0f:61:6f:f2:56:74:b1:7f:cc:87:aa:e8:66:e9:
         ed:8a:cf:f9:98:fd:9c:45:86:8d:1a:11:ff:ec:7e:bb:70:e2:
         57:37:e2:8e:c5:31:5c:46:ec:d0:e8:1d:bd:3f:1d:9a:86:19:
         e2:bb:3f:0f:14:02:3e:8f:cd:69:00:7a:23:c1:a9:a1:49:26:
         3e:e5:55:ba:6c:8b:73:a2:7a:24:01:55:f7:bf:1b:1d:58:f0:
         53:3f:dc:42
-----BEGIN CERTIFICATE-----
MIIDTzCCAjegAwIBAgIQEiSgJjgT+LUZGfe+WmRb6TANBgkqhkiG9w0BAQsFADAT
MREwDwYDVQQDDAhDaGFuZ2VNZTAgFw0yMzAzMjkxMzUxMzBaGA8yMDUyMTAyMjEz
NTEzMFowEDEOMAwGA1UEAwwFdXNlcjUwggEiMA0GCSqGSIb3DQEBAQUAA4IBDwAw
ggEKAoIBAQDBTD4A1cQsgZgJoVolbU/owmCcKOK1bFrJLd/ndAG34L+dqofKk1bQ
DXxH3isS21Kam5fEOK1/80MJcXiOOaDXhwoPw+y/l9gbfMO+92Fh/GoYXqNE+gyc
IsHojIbIAk9qPJ+kxQIOS9FRKczP4lu5WFVoZdrJPI4eBsayqe6+R4yjrVROxhSo
fQEtyWrhSHyOKWcExbm6BlhUzkSVG2EH7aDwmkeQ/mYsdNka8saz584MUIzivo5u
vUqRWLtgIGLALbxtm2vWoSgC9VKN+HYd2UMmiaOQOh7dQsqbWxeAksQ6fyqihTEo
j+d4CH0HIDX9Dz57Q9qv8h2dKwZhMhPRAgMBAAGjgZ8wgZwwCQYDVR0TBAIwADAd
BgNVHQ4EFgQU2gwJ6QYWi8QeUrfsmkBzbwBwBWswTgYDVR0jBEcwRYAUxalpF3pE
XlDqPhbHUkG14HAiv7ehF6QVMBMxETAPBgNVBAMMCENoYW5nZU1lghRZ98xVUlhO
oOAzTBxjxmQBnVV3/DATBgNVHSUEDDAKBggrBgEFBQcDAjALBgNVHQ8EBAMCB4Aw
DQYJKoZIhvcNAQELBQADggEBAKZIxBR/g/qwwlESnp3WYXlKOnIznoJSBoom2zt+
5i1CzHmGNQVTR0ExQkKeUHfUK6mMwLRvpLMV3JKfPIWOoK67QAu8okgqf/4A5V5a
wRx2yXqw2T/lQAo7k40wd09XnH25aGJY93WD12cYmM101eAkPJ5qDfNxF2dSXP9N
oAY4iutajvbNZgJcNYVxNL2QUBbsrdwhcOfb+KV0qvVGMldBGsliNSQPYW/yVnSx
f8yHquhm6e2Kz/mY/ZxFho0aEf/sfrtw4lc34o7FMVxG7NDoHb0/HZqGGeK7Pw8U
Aj6PzWkAeiPBqaFJJj7lVbpsi3OieiQBVfe/Gx1Y8FM/3EI=
-----END CERTIFICATE-----
