Certificate:
    Data:
        Version: 3 (0x2)
        Serial Number:
            8c:1b:b7:c5:94:21:4c:de:24:29:85:f3:dc:1c:2d:06
        Signature Algorithm: sha256WithRSAEncryption
        Issuer: CN=ChangeMe
        Validity
            Not Before: Mar 29 12:55:35 2023 GMT
            Not After : Oct 22 12:55:35 2052 GMT
        Subject: CN=user4
        Subject Public Key Info:
            Public Key Algorithm: rsaEncryption
                RSA Public-Key: (2048 bit)
                Modulus:
                    00:fb:b4:c7:a4:83:6e:ae:bf:26:ef:85:38:e1:1e:
                    3a:df:24:25:fa:ad:8e:1a:73:d4:76:8b:f3:f5:30:
                    5d:ba:5e:b1:a8:72:fc:76:da:dd:74:f3:9e:52:c2:
                    1b:8b:95:15:90:58:e9:ed:7e:3e:05:0e:7d:43:1e:
                    39:ce:61:7c:e0:7f:e8:c9:24:8f:af:76:a3:88:da:
                    1e:2c:e7:59:fe:50:bf:e6:82:b5:bf:ad:8d:b3:41:
                    ae:b6:c7:38:69:6f:9a:d6:08:95:f8:1c:a7:c2:b8:
                    3f:f8:01:9a:a8:4d:73:a3:b6:2f:d1:5f:63:5a:e4:
                    eb:73:1a:b0:8f:52:cf:e2:96:e5:66:b0:d6:1d:88:
                    eb:9e:81:25:69:5d:2a:55:2c:52:ad:b7:f3:4f:ee:
                    a7:0f:7b:27:5c:47:5a:16:3a:db:81:d2:cd:6a:9d:
                    20:b8:3c:12:e7:a9:58:0f:ea:34:04:56:0e:7f:ac:
                    d0:11:21:c5:55:e7:3a:02:70:1e:5b:d7:e4:e5:57:
                    02:a2:15:01:39:62:56:a3:73:e0:93:c2:c1:f7:f4:
                    0b:0a:61:86:0c:58:92:b8:10:9f:79:05:ca:4b:fb:
                    56:08:1e:75:3f:18:81:28:75:3b:d4:c2:e8:2c:ee:
                    db:af:06:52:cd:6f:8b:b2:c2:b2:8a:cb:7d:9e:6b:
                    f7:ef
                Exponent: 65537 (0x10001)
        X509v3 extensions:
            X509v3 Basic Constraints: 
                CA:FALSE
            X509v3 Subject Key Identifier: 
                8D:02:AB:CF:36:B7:D3:4E:2A:E4:47:F9:64:4C:E4:1F:56:C0:E1:CE
            X509v3 Authority Key Identifier: 
                keyid:5B:5F:95:8D:60:8C:DF:4C:73:FD:7C:9A:F0:60:C2:2D:E9:81:84:32
                DirName:/CN=ChangeMe
                serial:0E:D1:C8:01:79:CF:8E:4D:55:0D:B2:3F:8B:B5:00:8C:06:69:14:7D

            X509v3 Extended Key Usage: 
                TLS Web Client Authentication
            X509v3 Key Usage: 
                Digital Signature
    Signature Algorithm: sha256WithRSAEncryption
         ad:07:00:bb:f6:08:66:40:88:29:62:a6:dd:ae:6e:27:fb:46:
         d9:67:a3:2a:71:df:2a:0a:43:15:4c:cc:a8:28:7e:b5:dc:28:
         60:e6:c5:73:0c:60:02:7e:f5:cf:ac:45:ed:12:d9:87:5c:f5:
         da:aa:f7:ff:df:03:df:2d:2b:9b:67:37:8c:48:df:ab:57:1b:
         eb:5a:4d:20:22:f8:37:00:cb:00:36:7f:4a:c6:99:22:0f:6e:
         10:c0:66:55:ea:6b:53:3d:24:90:e3:33:9e:eb:36:11:c2:8b:
         7f:c3:c5:7f:31:0f:0f:c6:36:24:a5:b6:3a:92:58:f6:3d:65:
         a3:14:fb:63:11:2a:b7:bb:bd:60:1b:80:fe:72:13:8f:83:9b:
         83:63:af:2b:55:50:82:e0:92:01:77:5c:10:96:2d:ea:71:eb:
         76:45:ab:3d:31:4c:ad:c5:e9:f4:04:95:17:67:05:9d:0e:bd:
         45:23:e1:e4:f2:f7:8a:68:b0:b2:b3:c1:a0:39:cd:fc:d7:41:
         0c:e0:73:8f:d7:ef:4b:81:37:57:1b:91:4e:07:ae:af:9b:90:
         80:b9:6d:db:4b:8d:3f:4b:28:db:c1:c9:37:a4:fd:f9:d0:b7:
         5a:cb:b1:40:10:18:fa:77:80:95:44:d1:28:bb:4a:e7:76:78:
         8c:89:65:6e
-----BEGIN CERTIFICATE-----
MIIDUDCCAjigAwIBAgIRAIwbt8WUIUzeJCmF89wcLQYwDQYJKoZIhvcNAQELBQAw
EzERMA8GA1UEAwwIQ2hhbmdlTWUwIBcNMjMwMzI5MTI1NTM1WhgPMjA1MjEwMjIx
MjU1MzVaMBAxDjAMBgNVBAMMBXVzZXI0MIIBIjANBgkqhkiG9w0BAQEFAAOCAQ8A
MIIBCgKCAQEA+7THpINurr8m74U44R463yQl+q2OGnPUdovz9TBdul6xqHL8dtrd
dPOeUsIbi5UVkFjp7X4+BQ59Qx45zmF84H/oySSPr3ajiNoeLOdZ/lC/5oK1v62N
s0Gutsc4aW+a1giV+Bynwrg/+AGaqE1zo7Yv0V9jWuTrcxqwj1LP4pblZrDWHYjr
noElaV0qVSxSrbfzT+6nD3snXEdaFjrbgdLNap0guDwS56lYD+o0BFYOf6zQESHF
Vec6AnAeW9fk5VcCohUBOWJWo3Pgk8LB9/QLCmGGDFiSuBCfeQXKS/tWCB51PxiB
KHU71MLoLO7brwZSzW+LssKyist9nmv37wIDAQABo4GfMIGcMAkGA1UdEwQCMAAw
HQYDVR0OBBYEFI0Cq882t9NOKuRH+WRM5B9WwOHOME4GA1UdIwRHMEWAFFtflY1g
jN9Mc/18mvBgwi3pgYQyoRekFTATMREwDwYDVQQDDAhDaGFuZ2VNZYIUDtHIAXnP
jk1VDbI/i7UAjAZpFH0wEwYDVR0lBAwwCgYIKwYBBQUHAwIwCwYDVR0PBAQDAgeA
MA0GCSqGSIb3DQEBCwUAA4IBAQCtBwC79ghmQIgpYqbdrm4n+0bZZ6Mqcd8qCkMV
TMyoKH613Chg5sVzDGACfvXPrEXtEtmHXPXaqvf/3wPfLSubZzeMSN+rVxvrWk0g
Ivg3AMsANn9KxpkiD24QwGZV6mtTPSSQ4zOe6zYRwot/w8V/MQ8PxjYkpbY6klj2
PWWjFPtjESq3u71gG4D+chOPg5uDY68rVVCC4JIBd1wQli3qcet2Ras9MUytxen0
BJUXZwWdDr1FI+Hk8veKaLCys8GgOc3810EM4HOP1+9LgTdXG5FOB66vm5CAuW3b
S40/Syjbwck3pP350Lday7FAEBj6d4CVRNEou0rndniMiWVu
-----END CERTIFICATE-----
