Certificate:
    Data:
        Version: 3 (0x2)
        Serial Number:
            20:d4:ce:57:20:f2:cd:f2:13:e8:11:1f:e4:33:cf:ea
        Signature Algorithm: sha256WithRSAEncryption
        Issuer: CN=ChangeMe
        Validity
            Not Before: Mar 29 13:51:29 2023 GMT
            Not After : Oct 22 13:51:29 2052 GMT
        Subject: CN=user4
        Subject Public Key Info:
            Public Key Algorithm: rsaEncryption
                RSA Public-Key: (2048 bit)
                Modulus:
                    00:d9:98:76:a2:de:02:a9:2e:31:4d:ca:84:72:c1:
                    5d:d1:b0:d7:c6:70:b1:1e:26:22:88:ad:a4:2f:86:
                    a0:4c:7d:f0:e9:e6:09:37:25:f1:cb:61:fe:64:f6:
                    ee:d7:b0:a0:78:bc:fb:32:64:71:17:95:c4:4a:7f:
                    86:67:22:c8:05:7e:5c:3f:6e:4c:d6:6e:ae:87:28:
                    1d:37:f2:92:36:59:a3:33:62:76:d3:f0:94:7f:e4:
                    cb:a4:90:18:3c:b5:04:90:ea:62:54:07:cf:1c:86:
                    33:0f:13:46:9c:69:9d:bd:05:00:22:f2:c2:6d:43:
                    4d:95:2b:09:e3:55:3f:f6:72:a3:38:91:64:63:42:
                    78:6b:4c:b5:5a:bc:25:ac:e4:71:54:fb:56:64:d8:
                    fb:54:7c:05:4f:3f:3a:11:37:c9:c5:b7:8d:2c:65:
                    fa:54:05:10:ed:eb:24:09:1f:37:b6:db:34:32:90:
                    18:0f:a7:37:1a:39:35:87:a5:06:17:f2:8f:2e:de:
                    b3:88:b9:64:4c:49:71:2e:39:3d:28:0a:84:f6:5c:
                    cf:81:7b:e2:ec:1d:bc:3e:45:96:6e:90:d7:0f:42:
                    80:ad:a5:87:84:8f:40:da:fc:d8:17:d5:00:7a:58:
                    39:54:aa:cc:06:4c:4f:5e:37:63:10:03:2e:3a:08:
                    b1:4b
                Exponent: 65537 (0x10001)
        X509v3 extensions:
            X509v3 Basic Constraints: 
                CA:FALSE
            X509v3 Subject Key Identifier: 
                AB:04:43:31:35:F5:55:8E:AF:7D:AE:CE:4F:2C:29:BC:11:2F:5F:B1
            X509v3 Authority Key Identifier: 
                keyid:C5:A9:69:17:7A:44:5E:50:EA:3E:16:C7:52:41:B5:E0:70:22:BF:B7
                DirName:/CN=ChangeMe
                serial:59:F7:CC:55:52:58:4E:A0:E0:33:4C:1C:63:C6:64:01:9D:55:77:FC

            X509v3 Extended Key Usage: 
                TLS Web Client Authentication
            X509v3 Key Usage: 
                Digital Signature
    Signature Algorithm: sha256WithRSAEncryption
         9a:eb:45:13:4b:bf:fc:5a:d5:79:10:65:73:02:3b:b0:56:c2:
         63:59:ea:ee:e5:2f:71:6b:9a:5e:85:e8:6e:dd:df:77:a9:95:
         0f:d8:47:c6:3e:df:ef:84:a1:83:fd:4b:38:6d:51:5c:89:44:
         39:d5:07:56:21:a6:3a:6b:a8:63:e0:cb:08:6b:bf:87:9d:8b:
         b7:c8:41:25:5a:5a:41:c0:fc:d7:43:a9:2c:83:88:59:98:ca:
         d2:09:96:ce:46:28:a5:0c:ac:1f:0f:de:28:fc:f3:a1:7e:78:
         99:fb:aa:08:70:26:f6:9a:f9:f3:96:21:72:e3:c0:4c:3f:98:
         74:a5:46:40:8e:ba:25:e9:98:9a:44:03:f2:23:70:3f:c0:db:
         0a:dc:2a:2c:57:4b:d1:10:d7:ac:ba:35:a0:08:11:5f:68:8a:
         26:97:1d:9a:80:5e:d8:ab:af:43:5e:ab:84:74:c6:ad:a5:4a:
         96:8e:35:a0:fb:c5:3a:ac:83:84:29:dd:6e:5a:e4:53:8a:ef:
         de:be:ce:fa:1b:7c:6e:96:76:26:ee:29:17:20:4e:d8:7a:fe:
         46:50:71:c3:72:4a:4d:d8:87:9b:7e:4a:fe:83:f9:56:3f:e0:
         42:49:10:32:d3:15:0d:6f:d2:10:4f:a9:cf:89:70:41:48:1b:
         c3:dc:d7:4d
-----BEGIN CERTIFICATE-----
MIIDTzCCAjegAwIBAgIQINTOVyDyzfIT6BEf5DPP6jANBgkqhkiG9w0BAQsFADAT
MREwDwYDVQQDDAhDaGFuZ2VNZTAgFw0yMzAzMjkxMzUxMjlaGA8yMDUyMTAyMjEz
NTEyOVowEDEOMAwGA1UEAwwFdXNlcjQwggEiMA0GCSqGSIb3DQEBAQUAA4IBDwAw
ggEKAoIBAQDZmHai3gKpLjFNyoRywV3RsNfGcLEeJiKIraQvhqBMffDp5gk3JfHL
Yf5k9u7XsKB4vPsyZHEXlcRKf4ZnIsgFflw/bkzWbq6HKB038pI2WaMzYnbT8JR/
5MukkBg8tQSQ6mJUB88chjMPE0acaZ29BQAi8sJtQ02VKwnjVT/2cqM4kWRjQnhr
TLVavCWs5HFU+1Zk2PtUfAVPPzoRN8nFt40sZfpUBRDt6yQJHze22zQykBgPpzca
OTWHpQYX8o8u3rOIuWRMSXEuOT0oCoT2XM+Be+LsHbw+RZZukNcPQoCtpYeEj0Da
/NgX1QB6WDlUqswGTE9eN2MQAy46CLFLAgMBAAGjgZ8wgZwwCQYDVR0TBAIwADAd
BgNVHQ4EFgQUqwRDMTX1VY6vfa7OTywpvBEvX7EwTgYDVR0jBEcwRYAUxalpF3pE
XlDqPhbHUkG14HAiv7ehF6QVMBMxETAPBgNVBAMMCENoYW5nZU1lghRZ98xVUlhO
oOAzTBxjxmQBnVV3/DATBgNVHSUEDDAKBggrBgEFBQcDAjALBgNVHQ8EBAMCB4Aw
DQYJKoZIhvcNAQELBQADggEBAJrrRRNLv/xa1XkQZXMCO7BWwmNZ6u7lL3Frml6F
6G7d33eplQ/YR8Y+3++EoYP9SzhtUVyJRDnVB1YhpjprqGPgywhrv4edi7fIQSVa
WkHA/NdDqSyDiFmYytIJls5GKKUMrB8P3ij886F+eJn7qghwJvaa+fOWIXLjwEw/
mHSlRkCOuiXpmJpEA/IjcD/A2wrcKixXS9EQ16y6NaAIEV9oiiaXHZqAXtirr0Ne
q4R0xq2lSpaONaD7xTqsg4Qp3W5a5FOK796+zvobfG6WdibuKRcgTth6/kZQccNy
Sk3Yh5t+Sv6D+VY/4EJJEDLTFQ1v0hBPqc+JcEFIG8Pc100=
-----END CERTIFICATE-----
